
build/main:     file format elf64-littleriscv


Disassembly of section .text:

0000000050201000 <_start>:
    50201000:	10401073          	csrw	sie,zero
    50201004:	14401073          	csrw	sip,zero
    50201008:	f14022f3          	csrr	t0,mhartid
    5020100c:	02029163          	bnez	t0,5020102e <clear_bss_done>
    50201010:	00006417          	auipc	s0,0x6
    50201014:	48c40413          	addi	s0,s0,1164 # 5020749c <_edata>
    50201018:	0000e497          	auipc	s1,0xe
    5020101c:	0a848493          	addi	s1,s1,168 # 5020f0c0 <__BSS_END__>
    50201020:	00945763          	bge	s0,s1,5020102e <clear_bss_done>

0000000050201024 <LOOP_clear>:
    50201024:	00042023          	sw	zero,0(s0)
    50201028:	0411                	addi	s0,s0,4
    5020102a:	fe944de3          	blt	s0,s1,50201024 <LOOP_clear>

000000005020102e <clear_bss_done>:
    5020102e:	50500137          	lui	sp,0x50500
    50201032:	f14022f3          	csrr	t0,mhartid
    50201036:	00028763          	beqz	t0,50201044 <init_sp_done>
    5020103a:	737d                	lui	t1,0xfffff

000000005020103c <init_sp>:
    5020103c:	911a                	add	sp,sp,t1
    5020103e:	12fd                	addi	t0,t0,-1
    50201040:	fe029ee3          	bnez	t0,5020103c <init_sp>

0000000050201044 <init_sp_done>:
    50201044:	4610006f          	j	50201ca4 <main>

0000000050201048 <loop>:
    50201048:	10500073          	wfi
    5020104c:	bff5                	j	50201048 <loop>
	...

0000000050201050 <enable_preempt>:
    50201050:	fff04293          	not	t0,zero
    50201054:	1042a073          	csrs	sie,t0
    50201058:	8082                	ret
    5020105a:	0001                	nop

000000005020105c <disable_preempt>:
    5020105c:	10401073          	csrw	sie,zero
    50201060:	8082                	ret
    50201062:	0001                	nop

0000000050201064 <enable_interrupt>:
    50201064:	4289                	li	t0,2
    50201066:	1002a073          	csrs	sstatus,t0
    5020106a:	8082                	ret

000000005020106c <disable_interrupt>:
    5020106c:	4289                	li	t0,2
    5020106e:	1002b073          	csrc	sstatus,t0
    50201072:	8082                	ret

0000000050201074 <switch_to>:
    50201074:	7159                	addi	sp,sp,-112
    50201076:	e006                	sd	ra,0(sp)
    50201078:	e40a                	sd	sp,8(sp)
    5020107a:	e822                	sd	s0,16(sp)
    5020107c:	ec26                	sd	s1,24(sp)
    5020107e:	f04a                	sd	s2,32(sp)
    50201080:	f44e                	sd	s3,40(sp)
    50201082:	f852                	sd	s4,48(sp)
    50201084:	fc56                	sd	s5,56(sp)
    50201086:	e0da                	sd	s6,64(sp)
    50201088:	e4de                	sd	s7,72(sp)
    5020108a:	e8e2                	sd	s8,80(sp)
    5020108c:	ece6                	sd	s9,88(sp)
    5020108e:	f0ea                	sd	s10,96(sp)
    50201090:	f4ee                	sd	s11,104(sp)
    50201092:	00253023          	sd	sp,0(a0)
    50201096:	0005b103          	ld	sp,0(a1)
    5020109a:	6082                	ld	ra,0(sp)
    5020109c:	6442                	ld	s0,16(sp)
    5020109e:	64e2                	ld	s1,24(sp)
    502010a0:	7902                	ld	s2,32(sp)
    502010a2:	79a2                	ld	s3,40(sp)
    502010a4:	7a42                	ld	s4,48(sp)
    502010a6:	7ae2                	ld	s5,56(sp)
    502010a8:	6b06                	ld	s6,64(sp)
    502010aa:	6ba6                	ld	s7,72(sp)
    502010ac:	6c46                	ld	s8,80(sp)
    502010ae:	6ce6                	ld	s9,88(sp)
    502010b0:	7d06                	ld	s10,96(sp)
    502010b2:	7da6                	ld	s11,104(sp)
    502010b4:	00058213          	mv	tp,a1
    502010b8:	6165                	addi	sp,sp,112
    502010ba:	0025b023          	sd	sp,0(a1)
    502010be:	8286                	mv	t0,ra
    502010c0:	183030ef          	jal	ra,50204a42 <sched_release>
    502010c4:	8096                	mv	ra,t0
    502010c6:	8082                	ret

00000000502010c8 <ret_from_exception>:
    502010c8:	6312                	ld	t1,256(sp)
    502010ca:	63b2                	ld	t2,264(sp)
    502010cc:	10031073          	csrw	sstatus,t1
    502010d0:	14139073          	csrw	sepc,t2
    502010d4:	00013003          	ld	zero,0(sp) # 50500000 <__BSS_END__+0x2f0f40>
    502010d8:	60a2                	ld	ra,8(sp)
    502010da:	61e2                	ld	gp,24(sp)
    502010dc:	7202                	ld	tp,32(sp)
    502010de:	72a2                	ld	t0,40(sp)
    502010e0:	7342                	ld	t1,48(sp)
    502010e2:	73e2                	ld	t2,56(sp)
    502010e4:	6406                	ld	s0,64(sp)
    502010e6:	64a6                	ld	s1,72(sp)
    502010e8:	6546                	ld	a0,80(sp)
    502010ea:	65e6                	ld	a1,88(sp)
    502010ec:	7606                	ld	a2,96(sp)
    502010ee:	76a6                	ld	a3,104(sp)
    502010f0:	7746                	ld	a4,112(sp)
    502010f2:	77e6                	ld	a5,120(sp)
    502010f4:	680a                	ld	a6,128(sp)
    502010f6:	68aa                	ld	a7,136(sp)
    502010f8:	694a                	ld	s2,144(sp)
    502010fa:	69ea                	ld	s3,152(sp)
    502010fc:	7a0a                	ld	s4,160(sp)
    502010fe:	7aaa                	ld	s5,168(sp)
    50201100:	7b4a                	ld	s6,176(sp)
    50201102:	7bea                	ld	s7,184(sp)
    50201104:	6c0e                	ld	s8,192(sp)
    50201106:	6cae                	ld	s9,200(sp)
    50201108:	6d4e                	ld	s10,208(sp)
    5020110a:	6dee                	ld	s11,216(sp)
    5020110c:	7e0e                	ld	t3,224(sp)
    5020110e:	7eae                	ld	t4,232(sp)
    50201110:	7f4e                	ld	t5,240(sp)
    50201112:	7fee                	ld	t6,248(sp)
    50201114:	6115                	addi	sp,sp,288
    50201116:	00223023          	sd	sp,0(tp) # 0 <TEXT_START-0x50201000>
    5020111a:	ef013103          	ld	sp,-272(sp)
    5020111e:	00823103          	ld	sp,8(tp) # 8 <TEXT_START-0x50200ff8>
    50201122:	10200073          	sret
    50201126:	0001                	nop

0000000050201128 <exception_handler_entry>:
    50201128:	00223423          	sd	sp,8(tp) # 8 <TEXT_START-0x50200ff8>
    5020112c:	14029073          	csrw	sscratch,t0
    50201130:	00023283          	ld	t0,0(tp) # 0 <TEXT_START-0x50201000>
    50201134:	ee22b823          	sd	sp,-272(t0)
    50201138:	140022f3          	csrr	t0,sscratch
    5020113c:	00023103          	ld	sp,0(tp) # 0 <TEXT_START-0x50201000>
    50201140:	712d                	addi	sp,sp,-288
    50201142:	e002                	sd	zero,0(sp)
    50201144:	e406                	sd	ra,8(sp)
    50201146:	ec0e                	sd	gp,24(sp)
    50201148:	f012                	sd	tp,32(sp)
    5020114a:	f416                	sd	t0,40(sp)
    5020114c:	f81a                	sd	t1,48(sp)
    5020114e:	fc1e                	sd	t2,56(sp)
    50201150:	e0a2                	sd	s0,64(sp)
    50201152:	e4a6                	sd	s1,72(sp)
    50201154:	e8aa                	sd	a0,80(sp)
    50201156:	ecae                	sd	a1,88(sp)
    50201158:	f0b2                	sd	a2,96(sp)
    5020115a:	f4b6                	sd	a3,104(sp)
    5020115c:	f8ba                	sd	a4,112(sp)
    5020115e:	fcbe                	sd	a5,120(sp)
    50201160:	e142                	sd	a6,128(sp)
    50201162:	e546                	sd	a7,136(sp)
    50201164:	e94a                	sd	s2,144(sp)
    50201166:	ed4e                	sd	s3,152(sp)
    50201168:	f152                	sd	s4,160(sp)
    5020116a:	f556                	sd	s5,168(sp)
    5020116c:	f95a                	sd	s6,176(sp)
    5020116e:	fd5e                	sd	s7,184(sp)
    50201170:	e1e2                	sd	s8,192(sp)
    50201172:	e5e6                	sd	s9,200(sp)
    50201174:	e9ea                	sd	s10,208(sp)
    50201176:	edee                	sd	s11,216(sp)
    50201178:	f1f2                	sd	t3,224(sp)
    5020117a:	f5f6                	sd	t4,232(sp)
    5020117c:	f9fa                	sd	t5,240(sp)
    5020117e:	fdfe                	sd	t6,248(sp)
    50201180:	00223023          	sd	sp,0(tp) # 0 <TEXT_START-0x50201000>
    50201184:	000462b7          	lui	t0,0x46
    50201188:	1002b2f3          	csrrc	t0,sstatus,t0
    5020118c:	10002373          	csrr	t1,sstatus
    50201190:	141023f3          	csrr	t2,sepc
    50201194:	14302e73          	csrr	t3,stval
    50201198:	14202ef3          	csrr	t4,scause
    5020119c:	e21a                	sd	t1,256(sp)
    5020119e:	e61e                	sd	t2,264(sp)
    502011a0:	ea72                	sd	t3,272(sp)
    502011a2:	ee76                	sd	t4,280(sp)
    502011a4:	850a                	mv	a0,sp
    502011a6:	105025f3          	csrr	a1,stvec
    502011aa:	14202673          	csrr	a2,scause
    502011ae:	76e010ef          	jal	ra,5020291c <interrupt_helper>
    502011b2:	00000097          	auipc	ra,0x0
    502011b6:	f1608093          	addi	ra,ra,-234 # 502010c8 <ret_from_exception>
    502011ba:	8082                	ret

00000000502011bc <disable_IRQ_S_SOFT>:
    502011bc:	10417073          	csrci	sie,2
    502011c0:	8082                	ret
	...

00000000502011c4 <setup_exception>:
    502011c4:	00000297          	auipc	t0,0x0
    502011c8:	f6428293          	addi	t0,t0,-156 # 50201128 <exception_handler_entry>
    502011cc:	10529073          	csrw	stvec,t0
    502011d0:	14401073          	csrw	sip,zero
    502011d4:	4289                	li	t0,2
    502011d6:	1002a073          	csrs	sstatus,t0
    502011da:	8082                	ret

00000000502011dc <clear_SIP>:
    502011dc:	14401073          	csrw	sip,zero
    502011e0:	8082                	ret
	...

00000000502011e4 <get_current_cpu_id>:
    502011e4:	f1402573          	csrr	a0,mhartid
    502011e8:	8082                	ret

00000000502011ea <list_init>:
    502011ea:	1101                	addi	sp,sp,-32
    502011ec:	ec22                	sd	s0,24(sp)
    502011ee:	1000                	addi	s0,sp,32
    502011f0:	fea43423          	sd	a0,-24(s0)
    502011f4:	fe843783          	ld	a5,-24(s0)
    502011f8:	fe843703          	ld	a4,-24(s0)
    502011fc:	e398                	sd	a4,0(a5)
    502011fe:	fe843783          	ld	a5,-24(s0)
    50201202:	fe843703          	ld	a4,-24(s0)
    50201206:	e798                	sd	a4,8(a5)
    50201208:	0001                	nop
    5020120a:	6462                	ld	s0,24(sp)
    5020120c:	6105                	addi	sp,sp,32
    5020120e:	8082                	ret

0000000050201210 <list_add>:
    50201210:	1101                	addi	sp,sp,-32
    50201212:	ec22                	sd	s0,24(sp)
    50201214:	1000                	addi	s0,sp,32
    50201216:	fea43423          	sd	a0,-24(s0)
    5020121a:	feb43023          	sd	a1,-32(s0)
    5020121e:	fe843783          	ld	a5,-24(s0)
    50201222:	fe043703          	ld	a4,-32(s0)
    50201226:	e398                	sd	a4,0(a5)
    50201228:	fe043783          	ld	a5,-32(s0)
    5020122c:	6798                	ld	a4,8(a5)
    5020122e:	fe843783          	ld	a5,-24(s0)
    50201232:	e798                	sd	a4,8(a5)
    50201234:	fe043783          	ld	a5,-32(s0)
    50201238:	679c                	ld	a5,8(a5)
    5020123a:	fe843703          	ld	a4,-24(s0)
    5020123e:	e398                	sd	a4,0(a5)
    50201240:	fe043783          	ld	a5,-32(s0)
    50201244:	fe843703          	ld	a4,-24(s0)
    50201248:	e798                	sd	a4,8(a5)
    5020124a:	0001                	nop
    5020124c:	6462                	ld	s0,24(sp)
    5020124e:	6105                	addi	sp,sp,32
    50201250:	8082                	ret

0000000050201252 <call_jmptab>:
    50201252:	715d                	addi	sp,sp,-80
    50201254:	e486                	sd	ra,72(sp)
    50201256:	e0a2                	sd	s0,64(sp)
    50201258:	0880                	addi	s0,sp,80
    5020125a:	fca43c23          	sd	a0,-40(s0)
    5020125e:	fcb43823          	sd	a1,-48(s0)
    50201262:	fcc43423          	sd	a2,-56(s0)
    50201266:	fcd43023          	sd	a3,-64(s0)
    5020126a:	fae43c23          	sd	a4,-72(s0)
    5020126e:	faf43823          	sd	a5,-80(s0)
    50201272:	fd843703          	ld	a4,-40(s0)
    50201276:	0a4007b7          	lui	a5,0xa400
    5020127a:	1781                	addi	a5,a5,-32
    5020127c:	97ba                	add	a5,a5,a4
    5020127e:	078e                	slli	a5,a5,0x3
    50201280:	639c                	ld	a5,0(a5)
    50201282:	fef43423          	sd	a5,-24(s0)
    50201286:	fe843783          	ld	a5,-24(s0)
    5020128a:	fef43023          	sd	a5,-32(s0)
    5020128e:	fe043783          	ld	a5,-32(s0)
    50201292:	fb043703          	ld	a4,-80(s0)
    50201296:	fb843683          	ld	a3,-72(s0)
    5020129a:	fc043603          	ld	a2,-64(s0)
    5020129e:	fc843583          	ld	a1,-56(s0)
    502012a2:	fd043503          	ld	a0,-48(s0)
    502012a6:	9782                	jalr	a5
    502012a8:	87aa                	mv	a5,a0
    502012aa:	853e                	mv	a0,a5
    502012ac:	60a6                	ld	ra,72(sp)
    502012ae:	6406                	ld	s0,64(sp)
    502012b0:	6161                	addi	sp,sp,80
    502012b2:	8082                	ret

00000000502012b4 <bios_putchar>:
    502012b4:	1101                	addi	sp,sp,-32
    502012b6:	ec06                	sd	ra,24(sp)
    502012b8:	e822                	sd	s0,16(sp)
    502012ba:	1000                	addi	s0,sp,32
    502012bc:	87aa                	mv	a5,a0
    502012be:	fef42623          	sw	a5,-20(s0)
    502012c2:	fec42583          	lw	a1,-20(s0)
    502012c6:	4781                	li	a5,0
    502012c8:	4701                	li	a4,0
    502012ca:	4681                	li	a3,0
    502012cc:	4601                	li	a2,0
    502012ce:	4505                	li	a0,1
    502012d0:	f83ff0ef          	jal	ra,50201252 <call_jmptab>
    502012d4:	0001                	nop
    502012d6:	60e2                	ld	ra,24(sp)
    502012d8:	6442                	ld	s0,16(sp)
    502012da:	6105                	addi	sp,sp,32
    502012dc:	8082                	ret

00000000502012de <bios_getchar>:
    502012de:	1141                	addi	sp,sp,-16
    502012e0:	e406                	sd	ra,8(sp)
    502012e2:	e022                	sd	s0,0(sp)
    502012e4:	0800                	addi	s0,sp,16
    502012e6:	4781                	li	a5,0
    502012e8:	4701                	li	a4,0
    502012ea:	4681                	li	a3,0
    502012ec:	4601                	li	a2,0
    502012ee:	4581                	li	a1,0
    502012f0:	4509                	li	a0,2
    502012f2:	f61ff0ef          	jal	ra,50201252 <call_jmptab>
    502012f6:	87aa                	mv	a5,a0
    502012f8:	2781                	sext.w	a5,a5
    502012fa:	853e                	mv	a0,a5
    502012fc:	60a2                	ld	ra,8(sp)
    502012fe:	6402                	ld	s0,0(sp)
    50201300:	0141                	addi	sp,sp,16
    50201302:	8082                	ret

0000000050201304 <bios_sd_read>:
    50201304:	1101                	addi	sp,sp,-32
    50201306:	ec06                	sd	ra,24(sp)
    50201308:	e822                	sd	s0,16(sp)
    5020130a:	1000                	addi	s0,sp,32
    5020130c:	87aa                	mv	a5,a0
    5020130e:	86ae                	mv	a3,a1
    50201310:	8732                	mv	a4,a2
    50201312:	fef42623          	sw	a5,-20(s0)
    50201316:	87b6                	mv	a5,a3
    50201318:	fef42423          	sw	a5,-24(s0)
    5020131c:	87ba                	mv	a5,a4
    5020131e:	fef42223          	sw	a5,-28(s0)
    50201322:	fec46583          	lwu	a1,-20(s0)
    50201326:	fe846603          	lwu	a2,-24(s0)
    5020132a:	fe446683          	lwu	a3,-28(s0)
    5020132e:	4781                	li	a5,0
    50201330:	4701                	li	a4,0
    50201332:	450d                	li	a0,3
    50201334:	f1fff0ef          	jal	ra,50201252 <call_jmptab>
    50201338:	87aa                	mv	a5,a0
    5020133a:	2781                	sext.w	a5,a5
    5020133c:	853e                	mv	a0,a5
    5020133e:	60e2                	ld	ra,24(sp)
    50201340:	6442                	ld	s0,16(sp)
    50201342:	6105                	addi	sp,sp,32
    50201344:	8082                	ret

0000000050201346 <bios_set_timer>:
    50201346:	1101                	addi	sp,sp,-32
    50201348:	ec06                	sd	ra,24(sp)
    5020134a:	e822                	sd	s0,16(sp)
    5020134c:	1000                	addi	s0,sp,32
    5020134e:	fea43423          	sd	a0,-24(s0)
    50201352:	fe843583          	ld	a1,-24(s0)
    50201356:	4781                	li	a5,0
    50201358:	4701                	li	a4,0
    5020135a:	4681                	li	a3,0
    5020135c:	4601                	li	a2,0
    5020135e:	4519                	li	a0,6
    50201360:	ef3ff0ef          	jal	ra,50201252 <call_jmptab>
    50201364:	0001                	nop
    50201366:	60e2                	ld	ra,24(sp)
    50201368:	6442                	ld	s0,16(sp)
    5020136a:	6105                	addi	sp,sp,32
    5020136c:	8082                	ret

000000005020136e <bios_read_fdt>:
    5020136e:	1101                	addi	sp,sp,-32
    50201370:	ec06                	sd	ra,24(sp)
    50201372:	e822                	sd	s0,16(sp)
    50201374:	1000                	addi	s0,sp,32
    50201376:	87aa                	mv	a5,a0
    50201378:	fef42623          	sw	a5,-20(s0)
    5020137c:	fec46583          	lwu	a1,-20(s0)
    50201380:	4781                	li	a5,0
    50201382:	4701                	li	a4,0
    50201384:	4681                	li	a3,0
    50201386:	4601                	li	a2,0
    50201388:	451d                	li	a0,7
    5020138a:	ec9ff0ef          	jal	ra,50201252 <call_jmptab>
    5020138e:	87aa                	mv	a5,a0
    50201390:	853e                	mv	a0,a5
    50201392:	60e2                	ld	ra,24(sp)
    50201394:	6442                	ld	s0,16(sp)
    50201396:	6105                	addi	sp,sp,32
    50201398:	8082                	ret

000000005020139a <init_jmptab>:
    5020139a:	1101                	addi	sp,sp,-32
    5020139c:	ec22                	sd	s0,24(sp)
    5020139e:	1000                	addi	s0,sp,32
    502013a0:	520007b7          	lui	a5,0x52000
    502013a4:	f0078793          	addi	a5,a5,-256 # 51ffff00 <__BSS_END__+0x1df0e40>
    502013a8:	fef43423          	sd	a5,-24(s0)
    502013ac:	fe843783          	ld	a5,-24(s0)
    502013b0:	00001717          	auipc	a4,0x1
    502013b4:	c1c70713          	addi	a4,a4,-996 # 50201fcc <port_write>
    502013b8:	e398                	sd	a4,0(a5)
    502013ba:	fe843783          	ld	a5,-24(s0)
    502013be:	07a1                	addi	a5,a5,8
    502013c0:	00001717          	auipc	a4,0x1
    502013c4:	be270713          	addi	a4,a4,-1054 # 50201fa2 <port_write_ch>
    502013c8:	e398                	sd	a4,0(a5)
    502013ca:	fe843783          	ld	a5,-24(s0)
    502013ce:	07c1                	addi	a5,a5,16
    502013d0:	00001717          	auipc	a4,0x1
    502013d4:	c2470713          	addi	a4,a4,-988 # 50201ff4 <port_read_ch>
    502013d8:	e398                	sd	a4,0(a5)
    502013da:	fe843783          	ld	a5,-24(s0)
    502013de:	07e1                	addi	a5,a5,24
    502013e0:	00001717          	auipc	a4,0x1
    502013e4:	c3a70713          	addi	a4,a4,-966 # 5020201a <sd_read>
    502013e8:	e398                	sd	a4,0(a5)
    502013ea:	fe843783          	ld	a5,-24(s0)
    502013ee:	02078793          	addi	a5,a5,32
    502013f2:	00001717          	auipc	a4,0x1
    502013f6:	c6a70713          	addi	a4,a4,-918 # 5020205c <sd_write>
    502013fa:	e398                	sd	a4,0(a5)
    502013fc:	fe843783          	ld	a5,-24(s0)
    50201400:	02878793          	addi	a5,a5,40
    50201404:	00001717          	auipc	a4,0x1
    50201408:	cee70713          	addi	a4,a4,-786 # 502020f2 <qemu_logging>
    5020140c:	e398                	sd	a4,0(a5)
    5020140e:	fe843783          	ld	a5,-24(s0)
    50201412:	03078793          	addi	a5,a5,48
    50201416:	00001717          	auipc	a4,0x1
    5020141a:	c8870713          	addi	a4,a4,-888 # 5020209e <set_timer>
    5020141e:	e398                	sd	a4,0(a5)
    50201420:	fe843783          	ld	a5,-24(s0)
    50201424:	03878793          	addi	a5,a5,56
    50201428:	00001717          	auipc	a4,0x1
    5020142c:	c9e70713          	addi	a4,a4,-866 # 502020c6 <read_fdt>
    50201430:	e398                	sd	a4,0(a5)
    50201432:	fe843783          	ld	a5,-24(s0)
    50201436:	04078793          	addi	a5,a5,64
    5020143a:	00001717          	auipc	a4,0x1
    5020143e:	03e70713          	addi	a4,a4,62 # 50202478 <screen_move_cursor>
    50201442:	e398                	sd	a4,0(a5)
    50201444:	fe843783          	ld	a5,-24(s0)
    50201448:	04878793          	addi	a5,a5,72
    5020144c:	00005717          	auipc	a4,0x5
    50201450:	1e070713          	addi	a4,a4,480 # 5020662c <printk>
    50201454:	e398                	sd	a4,0(a5)
    50201456:	fe843783          	ld	a5,-24(s0)
    5020145a:	05078793          	addi	a5,a5,80
    5020145e:	00003717          	auipc	a4,0x3
    50201462:	20e70713          	addi	a4,a4,526 # 5020466c <do_scheduler>
    50201466:	e398                	sd	a4,0(a5)
    50201468:	fe843783          	ld	a5,-24(s0)
    5020146c:	05878793          	addi	a5,a5,88
    50201470:	00002717          	auipc	a4,0x2
    50201474:	c9c70713          	addi	a4,a4,-868 # 5020310c <do_mutex_lock_init>
    50201478:	e398                	sd	a4,0(a5)
    5020147a:	fe843783          	ld	a5,-24(s0)
    5020147e:	06078793          	addi	a5,a5,96
    50201482:	00002717          	auipc	a4,0x2
    50201486:	cba70713          	addi	a4,a4,-838 # 5020313c <do_mutex_lock_acquire>
    5020148a:	e398                	sd	a4,0(a5)
    5020148c:	fe843783          	ld	a5,-24(s0)
    50201490:	06878793          	addi	a5,a5,104
    50201494:	00002717          	auipc	a4,0x2
    50201498:	de870713          	addi	a4,a4,-536 # 5020327c <do_mutex_lock_release>
    5020149c:	e398                	sd	a4,0(a5)
    5020149e:	fe843783          	ld	a5,-24(s0)
    502014a2:	07878793          	addi	a5,a5,120
    502014a6:	00001717          	auipc	a4,0x1
    502014aa:	03a70713          	addi	a4,a4,58 # 502024e0 <screen_write>
    502014ae:	e398                	sd	a4,0(a5)
    502014b0:	fe843783          	ld	a5,-24(s0)
    502014b4:	08078793          	addi	a5,a5,128
    502014b8:	00001717          	auipc	a4,0x1
    502014bc:	08670713          	addi	a4,a4,134 # 5020253e <screen_reflush>
    502014c0:	e398                	sd	a4,0(a5)
    502014c2:	0001                	nop
    502014c4:	6462                	ld	s0,24(sp)
    502014c6:	6105                	addi	sp,sp,32
    502014c8:	8082                	ret

00000000502014ca <init_task_info>:
    502014ca:	7179                	addi	sp,sp,-48
    502014cc:	f406                	sd	ra,40(sp)
    502014ce:	f022                	sd	s0,32(sp)
    502014d0:	1800                	addi	s0,sp,48
    502014d2:	502007b7          	lui	a5,0x50200
    502014d6:	1f878793          	addi	a5,a5,504 # 502001f8 <TEXT_START-0xe08>
    502014da:	439c                	lw	a5,0(a5)
    502014dc:	fef42223          	sw	a5,-28(s0)
    502014e0:	fe442783          	lw	a5,-28(s0)
    502014e4:	863e                	mv	a2,a5
    502014e6:	4589                	li	a1,2
    502014e8:	54000537          	lui	a0,0x54000
    502014ec:	e19ff0ef          	jal	ra,50201304 <bios_sd_read>
    502014f0:	540007b7          	lui	a5,0x54000
    502014f4:	fcf43c23          	sd	a5,-40(s0)
    502014f8:	fe042623          	sw	zero,-20(s0)
    502014fc:	aa29                	j	50201616 <init_task_info+0x14c>
    502014fe:	fe042423          	sw	zero,-24(s0)
    50201502:	a0a9                	j	5020154c <init_task_info+0x82>
    50201504:	fec42703          	lw	a4,-20(s0)
    50201508:	87ba                	mv	a5,a4
    5020150a:	0786                	slli	a5,a5,0x1
    5020150c:	97ba                	add	a5,a5,a4
    5020150e:	0792                	slli	a5,a5,0x4
    50201510:	873e                	mv	a4,a5
    50201512:	fd843783          	ld	a5,-40(s0)
    50201516:	973e                	add	a4,a4,a5
    50201518:	fe842783          	lw	a5,-24(s0)
    5020151c:	97ba                	add	a5,a5,a4
    5020151e:	0007c683          	lbu	a3,0(a5) # 54000000 <__BSS_END__+0x3df0f40>
    50201522:	00008597          	auipc	a1,0x8
    50201526:	8ae58593          	addi	a1,a1,-1874 # 50208dd0 <tasks>
    5020152a:	fe842603          	lw	a2,-24(s0)
    5020152e:	fec42703          	lw	a4,-20(s0)
    50201532:	87ba                	mv	a5,a4
    50201534:	0786                	slli	a5,a5,0x1
    50201536:	97ba                	add	a5,a5,a4
    50201538:	0792                	slli	a5,a5,0x4
    5020153a:	97ae                	add	a5,a5,a1
    5020153c:	97b2                	add	a5,a5,a2
    5020153e:	00d78023          	sb	a3,0(a5)
    50201542:	fe842783          	lw	a5,-24(s0)
    50201546:	2785                	addiw	a5,a5,1
    50201548:	fef42423          	sw	a5,-24(s0)
    5020154c:	fe842783          	lw	a5,-24(s0)
    50201550:	0007871b          	sext.w	a4,a5
    50201554:	47fd                	li	a5,31
    50201556:	fae7d7e3          	bge	a5,a4,50201504 <init_task_info+0x3a>
    5020155a:	fec42703          	lw	a4,-20(s0)
    5020155e:	87ba                	mv	a5,a4
    50201560:	0786                	slli	a5,a5,0x1
    50201562:	97ba                	add	a5,a5,a4
    50201564:	0792                	slli	a5,a5,0x4
    50201566:	873e                	mv	a4,a5
    50201568:	fd843783          	ld	a5,-40(s0)
    5020156c:	97ba                	add	a5,a5,a4
    5020156e:	53d4                	lw	a3,36(a5)
    50201570:	00008617          	auipc	a2,0x8
    50201574:	86060613          	addi	a2,a2,-1952 # 50208dd0 <tasks>
    50201578:	fec42703          	lw	a4,-20(s0)
    5020157c:	87ba                	mv	a5,a4
    5020157e:	0786                	slli	a5,a5,0x1
    50201580:	97ba                	add	a5,a5,a4
    50201582:	0792                	slli	a5,a5,0x4
    50201584:	97b2                	add	a5,a5,a2
    50201586:	d3d4                	sw	a3,36(a5)
    50201588:	fec42703          	lw	a4,-20(s0)
    5020158c:	87ba                	mv	a5,a4
    5020158e:	0786                	slli	a5,a5,0x1
    50201590:	97ba                	add	a5,a5,a4
    50201592:	0792                	slli	a5,a5,0x4
    50201594:	873e                	mv	a4,a5
    50201596:	fd843783          	ld	a5,-40(s0)
    5020159a:	97ba                	add	a5,a5,a4
    5020159c:	5394                	lw	a3,32(a5)
    5020159e:	00008617          	auipc	a2,0x8
    502015a2:	83260613          	addi	a2,a2,-1998 # 50208dd0 <tasks>
    502015a6:	fec42703          	lw	a4,-20(s0)
    502015aa:	87ba                	mv	a5,a4
    502015ac:	0786                	slli	a5,a5,0x1
    502015ae:	97ba                	add	a5,a5,a4
    502015b0:	0792                	slli	a5,a5,0x4
    502015b2:	97b2                	add	a5,a5,a2
    502015b4:	d394                	sw	a3,32(a5)
    502015b6:	fec42703          	lw	a4,-20(s0)
    502015ba:	87ba                	mv	a5,a4
    502015bc:	0786                	slli	a5,a5,0x1
    502015be:	97ba                	add	a5,a5,a4
    502015c0:	0792                	slli	a5,a5,0x4
    502015c2:	873e                	mv	a4,a5
    502015c4:	fd843783          	ld	a5,-40(s0)
    502015c8:	97ba                	add	a5,a5,a4
    502015ca:	7794                	ld	a3,40(a5)
    502015cc:	00008617          	auipc	a2,0x8
    502015d0:	80460613          	addi	a2,a2,-2044 # 50208dd0 <tasks>
    502015d4:	fec42703          	lw	a4,-20(s0)
    502015d8:	87ba                	mv	a5,a4
    502015da:	0786                	slli	a5,a5,0x1
    502015dc:	97ba                	add	a5,a5,a4
    502015de:	0792                	slli	a5,a5,0x4
    502015e0:	97b2                	add	a5,a5,a2
    502015e2:	f794                	sd	a3,40(a5)
    502015e4:	fec42703          	lw	a4,-20(s0)
    502015e8:	87ba                	mv	a5,a4
    502015ea:	0786                	slli	a5,a5,0x1
    502015ec:	97ba                	add	a5,a5,a4
    502015ee:	0792                	slli	a5,a5,0x4
    502015f0:	00007717          	auipc	a4,0x7
    502015f4:	7e070713          	addi	a4,a4,2016 # 50208dd0 <tasks>
    502015f8:	973e                	add	a4,a4,a5
    502015fa:	00008697          	auipc	a3,0x8
    502015fe:	de668693          	addi	a3,a3,-538 # 502093e0 <debug_name>
    50201602:	fec42783          	lw	a5,-20(s0)
    50201606:	078e                	slli	a5,a5,0x3
    50201608:	97b6                	add	a5,a5,a3
    5020160a:	e398                	sd	a4,0(a5)
    5020160c:	fec42783          	lw	a5,-20(s0)
    50201610:	2785                	addiw	a5,a5,1
    50201612:	fef42623          	sw	a5,-20(s0)
    50201616:	fec42783          	lw	a5,-20(s0)
    5020161a:	0007871b          	sext.w	a4,a5
    5020161e:	47fd                	li	a5,31
    50201620:	ece7dfe3          	bge	a5,a4,502014fe <init_task_info+0x34>
    50201624:	0001                	nop
    50201626:	0001                	nop
    50201628:	70a2                	ld	ra,40(sp)
    5020162a:	7402                	ld	s0,32(sp)
    5020162c:	6145                	addi	sp,sp,48
    5020162e:	8082                	ret

0000000050201630 <init_pcb_stack>:
    50201630:	7139                	addi	sp,sp,-64
    50201632:	fc22                	sd	s0,56(sp)
    50201634:	0080                	addi	s0,sp,64
    50201636:	fca43c23          	sd	a0,-40(s0)
    5020163a:	fcb43823          	sd	a1,-48(s0)
    5020163e:	fcc43423          	sd	a2,-56(s0)
    50201642:	fcd43023          	sd	a3,-64(s0)
    50201646:	fd843783          	ld	a5,-40(s0)
    5020164a:	ee078793          	addi	a5,a5,-288
    5020164e:	fef43423          	sd	a5,-24(s0)
    50201652:	fe843783          	ld	a5,-24(s0)
    50201656:	fc843703          	ld	a4,-56(s0)
    5020165a:	e798                	sd	a4,8(a5)
    5020165c:	fe843783          	ld	a5,-24(s0)
    50201660:	fd043703          	ld	a4,-48(s0)
    50201664:	eb98                	sd	a4,16(a5)
    50201666:	fc043703          	ld	a4,-64(s0)
    5020166a:	fe843783          	ld	a5,-24(s0)
    5020166e:	f398                	sd	a4,32(a5)
    50201670:	fe843783          	ld	a5,-24(s0)
    50201674:	fc843703          	ld	a4,-56(s0)
    50201678:	10e7b423          	sd	a4,264(a5)
    5020167c:	fe843783          	ld	a5,-24(s0)
    50201680:	4709                	li	a4,2
    50201682:	10e7b023          	sd	a4,256(a5)
    50201686:	fe843783          	ld	a5,-24(s0)
    5020168a:	f9078793          	addi	a5,a5,-112
    5020168e:	fef43023          	sd	a5,-32(s0)
    50201692:	fd843783          	ld	a5,-40(s0)
    50201696:	e7078713          	addi	a4,a5,-400
    5020169a:	fc043783          	ld	a5,-64(s0)
    5020169e:	e398                	sd	a4,0(a5)
    502016a0:	fc043783          	ld	a5,-64(s0)
    502016a4:	fd043703          	ld	a4,-48(s0)
    502016a8:	e798                	sd	a4,8(a5)
    502016aa:	fc043783          	ld	a5,-64(s0)
    502016ae:	fc843703          	ld	a4,-56(s0)
    502016b2:	e3b8                	sd	a4,64(a5)
    502016b4:	00000717          	auipc	a4,0x0
    502016b8:	a1470713          	addi	a4,a4,-1516 # 502010c8 <ret_from_exception>
    502016bc:	fe043783          	ld	a5,-32(s0)
    502016c0:	e398                	sd	a4,0(a5)
    502016c2:	fc043783          	ld	a5,-64(s0)
    502016c6:	6398                	ld	a4,0(a5)
    502016c8:	fe043783          	ld	a5,-32(s0)
    502016cc:	e798                	sd	a4,8(a5)
    502016ce:	0001                	nop
    502016d0:	7462                	ld	s0,56(sp)
    502016d2:	6121                	addi	sp,sp,64
    502016d4:	8082                	ret

00000000502016d6 <init_pcb>:
    502016d6:	7179                	addi	sp,sp,-48
    502016d8:	f406                	sd	ra,40(sp)
    502016da:	f022                	sd	s0,32(sp)
    502016dc:	1800                	addi	s0,sp,48
    502016de:	00006517          	auipc	a0,0x6
    502016e2:	d6250513          	addi	a0,a0,-670 # 50207440 <ready_queue>
    502016e6:	b05ff0ef          	jal	ra,502011ea <list_init>
    502016ea:	00006517          	auipc	a0,0x6
    502016ee:	b7250513          	addi	a0,a0,-1166 # 5020725c <pid0_pcb+0x4c>
    502016f2:	14f010ef          	jal	ra,50203040 <spin_lock_init>
    502016f6:	fe042623          	sw	zero,-20(s0)
    502016fa:	fe042423          	sw	zero,-24(s0)
    502016fe:	a445                	j	5020199e <init_pcb+0x2c8>
    50201700:	fe842783          	lw	a5,-24(s0)
    50201704:	2781                	sext.w	a5,a5
    50201706:	1a079d63          	bnez	a5,502018c0 <init_pcb+0x1ea>
    5020170a:	fe842783          	lw	a5,-24(s0)
    5020170e:	2785                	addiw	a5,a5,1
    50201710:	0007871b          	sext.w	a4,a5
    50201714:	0000b697          	auipc	a3,0xb
    50201718:	3ac68693          	addi	a3,a3,940 # 5020cac0 <pcb>
    5020171c:	fec42603          	lw	a2,-20(s0)
    50201720:	11800793          	li	a5,280
    50201724:	02f607b3          	mul	a5,a2,a5
    50201728:	97b6                	add	a5,a5,a3
    5020172a:	0ce7ac23          	sw	a4,216(a5)
    5020172e:	0000b717          	auipc	a4,0xb
    50201732:	39270713          	addi	a4,a4,914 # 5020cac0 <pcb>
    50201736:	fec42683          	lw	a3,-20(s0)
    5020173a:	11800793          	li	a5,280
    5020173e:	02f687b3          	mul	a5,a3,a5
    50201742:	97ba                	add	a5,a5,a4
    50201744:	0e07b423          	sd	zero,232(a5)
    50201748:	0000b717          	auipc	a4,0xb
    5020174c:	37870713          	addi	a4,a4,888 # 5020cac0 <pcb>
    50201750:	fec42683          	lw	a3,-20(s0)
    50201754:	11800793          	li	a5,280
    50201758:	02f687b3          	mul	a5,a3,a5
    5020175c:	97ba                	add	a5,a5,a4
    5020175e:	4709                	li	a4,2
    50201760:	10e7a023          	sw	a4,256(a5)
    50201764:	fec42703          	lw	a4,-20(s0)
    50201768:	87ba                	mv	a5,a4
    5020176a:	0786                	slli	a5,a5,0x1
    5020176c:	97ba                	add	a5,a5,a4
    5020176e:	0792                	slli	a5,a5,0x4
    50201770:	00007717          	auipc	a4,0x7
    50201774:	66070713          	addi	a4,a4,1632 # 50208dd0 <tasks>
    50201778:	973e                	add	a4,a4,a5
    5020177a:	0000b697          	auipc	a3,0xb
    5020177e:	34668693          	addi	a3,a3,838 # 5020cac0 <pcb>
    50201782:	fec42603          	lw	a2,-20(s0)
    50201786:	11800793          	li	a5,280
    5020178a:	02f607b3          	mul	a5,a2,a5
    5020178e:	97b6                	add	a5,a5,a3
    50201790:	fff8                	sd	a4,248(a5)
    50201792:	0000b717          	auipc	a4,0xb
    50201796:	32e70713          	addi	a4,a4,814 # 5020cac0 <pcb>
    5020179a:	fec42683          	lw	a3,-20(s0)
    5020179e:	11800793          	li	a5,280
    502017a2:	02f687b3          	mul	a5,a3,a5
    502017a6:	97ba                	add	a5,a5,a4
    502017a8:	0e07a823          	sw	zero,240(a5)
    502017ac:	0000b717          	auipc	a4,0xb
    502017b0:	31470713          	addi	a4,a4,788 # 5020cac0 <pcb>
    502017b4:	fec42683          	lw	a3,-20(s0)
    502017b8:	11800793          	li	a5,280
    502017bc:	02f687b3          	mul	a5,a3,a5
    502017c0:	97ba                	add	a5,a5,a4
    502017c2:	0c07ae23          	sw	zero,220(a5)
    502017c6:	0000b717          	auipc	a4,0xb
    502017ca:	2fa70713          	addi	a4,a4,762 # 5020cac0 <pcb>
    502017ce:	fec42683          	lw	a3,-20(s0)
    502017d2:	11800793          	li	a5,280
    502017d6:	02f687b3          	mul	a5,a3,a5
    502017da:	97ba                	add	a5,a5,a4
    502017dc:	0e07a023          	sw	zero,224(a5)
    502017e0:	0000b717          	auipc	a4,0xb
    502017e4:	2e070713          	addi	a4,a4,736 # 5020cac0 <pcb>
    502017e8:	fec42683          	lw	a3,-20(s0)
    502017ec:	11800793          	li	a5,280
    502017f0:	02f687b3          	mul	a5,a3,a5
    502017f4:	97ba                	add	a5,a5,a4
    502017f6:	0e07a223          	sw	zero,228(a5)
    502017fa:	0000b717          	auipc	a4,0xb
    502017fe:	2c670713          	addi	a4,a4,710 # 5020cac0 <pcb>
    50201802:	fec42683          	lw	a3,-20(s0)
    50201806:	11800793          	li	a5,280
    5020180a:	02f687b3          	mul	a5,a3,a5
    5020180e:	97ba                	add	a5,a5,a4
    50201810:	0407a423          	sw	zero,72(a5)
    50201814:	fec42703          	lw	a4,-20(s0)
    50201818:	11800793          	li	a5,280
    5020181c:	02f707b3          	mul	a5,a4,a5
    50201820:	04078713          	addi	a4,a5,64
    50201824:	0000b797          	auipc	a5,0xb
    50201828:	29c78793          	addi	a5,a5,668 # 5020cac0 <pcb>
    5020182c:	97ba                	add	a5,a5,a4
    5020182e:	07b1                	addi	a5,a5,12
    50201830:	853e                	mv	a0,a5
    50201832:	00f010ef          	jal	ra,50203040 <spin_lock_init>
    50201836:	fec42703          	lw	a4,-20(s0)
    5020183a:	11800793          	li	a5,280
    5020183e:	02f707b3          	mul	a5,a4,a5
    50201842:	02078713          	addi	a4,a5,32
    50201846:	0000b797          	auipc	a5,0xb
    5020184a:	27a78793          	addi	a5,a5,634 # 5020cac0 <pcb>
    5020184e:	97ba                	add	a5,a5,a4
    50201850:	00006597          	auipc	a1,0x6
    50201854:	bf058593          	addi	a1,a1,-1040 # 50207440 <ready_queue>
    50201858:	853e                	mv	a0,a5
    5020185a:	9b7ff0ef          	jal	ra,50201210 <list_add>
    5020185e:	4505                	li	a0,1
    50201860:	62e010ef          	jal	ra,50202e8e <allocKernelPage>
    50201864:	872a                	mv	a4,a0
    50201866:	6785                	lui	a5,0x1
    50201868:	97ba                	add	a5,a5,a4
    5020186a:	fef43023          	sd	a5,-32(s0)
    5020186e:	4505                	li	a0,1
    50201870:	66a010ef          	jal	ra,50202eda <allocUserPage>
    50201874:	872a                	mv	a4,a0
    50201876:	6785                	lui	a5,0x1
    50201878:	97ba                	add	a5,a5,a4
    5020187a:	fcf43c23          	sd	a5,-40(s0)
    5020187e:	fe842783          	lw	a5,-24(s0)
    50201882:	853e                	mv	a0,a5
    50201884:	472010ef          	jal	ra,50202cf6 <load_task_img>
    50201888:	fca43823          	sd	a0,-48(s0)
    5020188c:	fec42703          	lw	a4,-20(s0)
    50201890:	11800793          	li	a5,280
    50201894:	02f70733          	mul	a4,a4,a5
    50201898:	0000b797          	auipc	a5,0xb
    5020189c:	22878793          	addi	a5,a5,552 # 5020cac0 <pcb>
    502018a0:	97ba                	add	a5,a5,a4
    502018a2:	86be                	mv	a3,a5
    502018a4:	fd043603          	ld	a2,-48(s0)
    502018a8:	fd843583          	ld	a1,-40(s0)
    502018ac:	fe043503          	ld	a0,-32(s0)
    502018b0:	d81ff0ef          	jal	ra,50201630 <init_pcb_stack>
    502018b4:	fec42783          	lw	a5,-20(s0)
    502018b8:	2785                	addiw	a5,a5,1
    502018ba:	fef42623          	sw	a5,-20(s0)
    502018be:	a8d9                	j	50201994 <init_pcb+0x2be>
    502018c0:	fec42783          	lw	a5,-20(s0)
    502018c4:	853e                	mv	a0,a5
    502018c6:	430010ef          	jal	ra,50202cf6 <load_task_img>
    502018ca:	0000b717          	auipc	a4,0xb
    502018ce:	1f670713          	addi	a4,a4,502 # 5020cac0 <pcb>
    502018d2:	fec42683          	lw	a3,-20(s0)
    502018d6:	11800793          	li	a5,280
    502018da:	02f687b3          	mul	a5,a3,a5
    502018de:	97ba                	add	a5,a5,a4
    502018e0:	0c07ac23          	sw	zero,216(a5)
    502018e4:	0000b717          	auipc	a4,0xb
    502018e8:	1dc70713          	addi	a4,a4,476 # 5020cac0 <pcb>
    502018ec:	fec42683          	lw	a3,-20(s0)
    502018f0:	11800793          	li	a5,280
    502018f4:	02f687b3          	mul	a5,a3,a5
    502018f8:	97ba                	add	a5,a5,a4
    502018fa:	470d                	li	a4,3
    502018fc:	10e7a023          	sw	a4,256(a5)
    50201900:	0000b717          	auipc	a4,0xb
    50201904:	1c070713          	addi	a4,a4,448 # 5020cac0 <pcb>
    50201908:	fec42683          	lw	a3,-20(s0)
    5020190c:	11800793          	li	a5,280
    50201910:	02f687b3          	mul	a5,a3,a5
    50201914:	97ba                	add	a5,a5,a4
    50201916:	0c07ae23          	sw	zero,220(a5)
    5020191a:	0000b717          	auipc	a4,0xb
    5020191e:	1a670713          	addi	a4,a4,422 # 5020cac0 <pcb>
    50201922:	fec42683          	lw	a3,-20(s0)
    50201926:	11800793          	li	a5,280
    5020192a:	02f687b3          	mul	a5,a3,a5
    5020192e:	97ba                	add	a5,a5,a4
    50201930:	0e07a023          	sw	zero,224(a5)
    50201934:	0000b717          	auipc	a4,0xb
    50201938:	18c70713          	addi	a4,a4,396 # 5020cac0 <pcb>
    5020193c:	fec42683          	lw	a3,-20(s0)
    50201940:	11800793          	li	a5,280
    50201944:	02f687b3          	mul	a5,a3,a5
    50201948:	97ba                	add	a5,a5,a4
    5020194a:	0e07a223          	sw	zero,228(a5)
    5020194e:	0000b717          	auipc	a4,0xb
    50201952:	17270713          	addi	a4,a4,370 # 5020cac0 <pcb>
    50201956:	fec42683          	lw	a3,-20(s0)
    5020195a:	11800793          	li	a5,280
    5020195e:	02f687b3          	mul	a5,a3,a5
    50201962:	97ba                	add	a5,a5,a4
    50201964:	0407a423          	sw	zero,72(a5)
    50201968:	fec42703          	lw	a4,-20(s0)
    5020196c:	11800793          	li	a5,280
    50201970:	02f707b3          	mul	a5,a4,a5
    50201974:	04078713          	addi	a4,a5,64
    50201978:	0000b797          	auipc	a5,0xb
    5020197c:	14878793          	addi	a5,a5,328 # 5020cac0 <pcb>
    50201980:	97ba                	add	a5,a5,a4
    50201982:	07b1                	addi	a5,a5,12
    50201984:	853e                	mv	a0,a5
    50201986:	6ba010ef          	jal	ra,50203040 <spin_lock_init>
    5020198a:	fec42783          	lw	a5,-20(s0)
    5020198e:	2785                	addiw	a5,a5,1
    50201990:	fef42623          	sw	a5,-20(s0)
    50201994:	fe842783          	lw	a5,-24(s0)
    50201998:	2785                	addiw	a5,a5,1
    5020199a:	fef42423          	sw	a5,-24(s0)
    5020199e:	fe842783          	lw	a5,-24(s0)
    502019a2:	0007871b          	sext.w	a4,a5
    502019a6:	47d1                	li	a5,20
    502019a8:	d4e7dce3          	bge	a5,a4,50201700 <init_pcb+0x2a>
    502019ac:	839ff0ef          	jal	ra,502011e4 <get_current_cpu_id>
    502019b0:	87aa                	mv	a5,a0
    502019b2:	00008717          	auipc	a4,0x8
    502019b6:	b3e70713          	addi	a4,a4,-1218 # 502094f0 <current_running>
    502019ba:	078e                	slli	a5,a5,0x3
    502019bc:	97ba                	add	a5,a5,a4
    502019be:	00006717          	auipc	a4,0x6
    502019c2:	85270713          	addi	a4,a4,-1966 # 50207210 <pid0_pcb>
    502019c6:	e398                	sd	a4,0(a5)
    502019c8:	81dff0ef          	jal	ra,502011e4 <get_current_cpu_id>
    502019cc:	87aa                	mv	a5,a0
    502019ce:	823a                	mv	tp,a4
    502019d0:	00008697          	auipc	a3,0x8
    502019d4:	b2068693          	addi	a3,a3,-1248 # 502094f0 <current_running>
    502019d8:	078e                	slli	a5,a5,0x3
    502019da:	97b6                	add	a5,a5,a3
    502019dc:	e398                	sd	a4,0(a5)
    502019de:	0001                	nop
    502019e0:	70a2                	ld	ra,40(sp)
    502019e2:	7402                	ld	s0,32(sp)
    502019e4:	6145                	addi	sp,sp,48
    502019e6:	8082                	ret

00000000502019e8 <init_syscall>:
    502019e8:	1141                	addi	sp,sp,-16
    502019ea:	e422                	sd	s0,8(sp)
    502019ec:	0800                	addi	s0,sp,16
    502019ee:	0000d797          	auipc	a5,0xd
    502019f2:	3d278793          	addi	a5,a5,978 # 5020edc0 <syscall>
    502019f6:	00003717          	auipc	a4,0x3
    502019fa:	0c670713          	addi	a4,a4,198 # 50204abc <do_sleep>
    502019fe:	eb98                	sd	a4,16(a5)
    50201a00:	0000d797          	auipc	a5,0xd
    50201a04:	3c078793          	addi	a5,a5,960 # 5020edc0 <syscall>
    50201a08:	00003717          	auipc	a4,0x3
    50201a0c:	c6470713          	addi	a4,a4,-924 # 5020466c <do_scheduler>
    50201a10:	ff98                	sd	a4,56(a5)
    50201a12:	0000d797          	auipc	a5,0xd
    50201a16:	3ae78793          	addi	a5,a5,942 # 5020edc0 <syscall>
    50201a1a:	00001717          	auipc	a4,0x1
    50201a1e:	ac670713          	addi	a4,a4,-1338 # 502024e0 <screen_write>
    50201a22:	f3d8                	sd	a4,160(a5)
    50201a24:	0000d797          	auipc	a5,0xd
    50201a28:	39c78793          	addi	a5,a5,924 # 5020edc0 <syscall>
    50201a2c:	00001717          	auipc	a4,0x1
    50201a30:	a4c70713          	addi	a4,a4,-1460 # 50202478 <screen_move_cursor>
    50201a34:	fbd8                	sd	a4,176(a5)
    50201a36:	0000d797          	auipc	a5,0xd
    50201a3a:	38a78793          	addi	a5,a5,906 # 5020edc0 <syscall>
    50201a3e:	00001717          	auipc	a4,0x1
    50201a42:	b0070713          	addi	a4,a4,-1280 # 5020253e <screen_reflush>
    50201a46:	ffd8                	sd	a4,184(a5)
    50201a48:	0000d797          	auipc	a5,0xd
    50201a4c:	37878793          	addi	a5,a5,888 # 5020edc0 <syscall>
    50201a50:	00001717          	auipc	a4,0x1
    50201a54:	95e70713          	addi	a4,a4,-1698 # 502023ae <screen_clear>
    50201a58:	e3f8                	sd	a4,192(a5)
    50201a5a:	0000d797          	auipc	a5,0xd
    50201a5e:	36678793          	addi	a5,a5,870 # 5020edc0 <syscall>
    50201a62:	00003717          	auipc	a4,0x3
    50201a66:	a1270713          	addi	a4,a4,-1518 # 50204474 <get_time_base>
    50201a6a:	fbf8                	sd	a4,240(a5)
    50201a6c:	0000d797          	auipc	a5,0xd
    50201a70:	35478793          	addi	a5,a5,852 # 5020edc0 <syscall>
    50201a74:	00003717          	auipc	a4,0x3
    50201a78:	9b470713          	addi	a4,a4,-1612 # 50204428 <get_ticks>
    50201a7c:	fff8                	sd	a4,248(a5)
    50201a7e:	0000d797          	auipc	a5,0xd
    50201a82:	34278793          	addi	a5,a5,834 # 5020edc0 <syscall>
    50201a86:	00001717          	auipc	a4,0x1
    50201a8a:	68670713          	addi	a4,a4,1670 # 5020310c <do_mutex_lock_init>
    50201a8e:	14e7b023          	sd	a4,320(a5)
    50201a92:	0000d797          	auipc	a5,0xd
    50201a96:	32e78793          	addi	a5,a5,814 # 5020edc0 <syscall>
    50201a9a:	00001717          	auipc	a4,0x1
    50201a9e:	6a270713          	addi	a4,a4,1698 # 5020313c <do_mutex_lock_acquire>
    50201aa2:	14e7b423          	sd	a4,328(a5)
    50201aa6:	0000d797          	auipc	a5,0xd
    50201aaa:	31a78793          	addi	a5,a5,794 # 5020edc0 <syscall>
    50201aae:	00001717          	auipc	a4,0x1
    50201ab2:	7ce70713          	addi	a4,a4,1998 # 5020327c <do_mutex_lock_release>
    50201ab6:	14e7b823          	sd	a4,336(a5)
    50201aba:	0000d797          	auipc	a5,0xd
    50201abe:	30678793          	addi	a5,a5,774 # 5020edc0 <syscall>
    50201ac2:	00003717          	auipc	a4,0x3
    50201ac6:	3f470713          	addi	a4,a4,1012 # 50204eb6 <thread_create>
    50201aca:	1ce7b023          	sd	a4,448(a5)
    50201ace:	0000d797          	auipc	a5,0xd
    50201ad2:	2f278793          	addi	a5,a5,754 # 5020edc0 <syscall>
    50201ad6:	00003717          	auipc	a4,0x3
    50201ada:	25c70713          	addi	a4,a4,604 # 50204d32 <thread_yield>
    50201ade:	1ce7b423          	sd	a4,456(a5)
    50201ae2:	0000d797          	auipc	a5,0xd
    50201ae6:	2de78793          	addi	a5,a5,734 # 5020edc0 <syscall>
    50201aea:	fffff717          	auipc	a4,0xfffff
    50201aee:	7f470713          	addi	a4,a4,2036 # 502012de <bios_getchar>
    50201af2:	e3b8                	sd	a4,64(a5)
    50201af4:	0000d797          	auipc	a5,0xd
    50201af8:	2cc78793          	addi	a5,a5,716 # 5020edc0 <syscall>
    50201afc:	fffff717          	auipc	a4,0xfffff
    50201b00:	7b870713          	addi	a4,a4,1976 # 502012b4 <bios_putchar>
    50201b04:	e7b8                	sd	a4,72(a5)
    50201b06:	0000d797          	auipc	a5,0xd
    50201b0a:	2ba78793          	addi	a5,a5,698 # 5020edc0 <syscall>
    50201b0e:	00004717          	auipc	a4,0x4
    50201b12:	da070713          	addi	a4,a4,-608 # 502058ae <do_process_show>
    50201b16:	f798                	sd	a4,40(a5)
    50201b18:	0000d797          	auipc	a5,0xd
    50201b1c:	2a878793          	addi	a5,a5,680 # 5020edc0 <syscall>
    50201b20:	00001717          	auipc	a4,0x1
    50201b24:	88e70713          	addi	a4,a4,-1906 # 502023ae <screen_clear>
    50201b28:	e3f8                	sd	a4,192(a5)
    50201b2a:	0000d797          	auipc	a5,0xd
    50201b2e:	29678793          	addi	a5,a5,662 # 5020edc0 <syscall>
    50201b32:	00003717          	auipc	a4,0x3
    50201b36:	4b470713          	addi	a4,a4,1204 # 50204fe6 <do_kill>
    50201b3a:	ef98                	sd	a4,24(a5)
    50201b3c:	0000d797          	auipc	a5,0xd
    50201b40:	28478793          	addi	a5,a5,644 # 5020edc0 <syscall>
    50201b44:	00003717          	auipc	a4,0x3
    50201b48:	70870713          	addi	a4,a4,1800 # 5020524c <do_exit>
    50201b4c:	e798                	sd	a4,8(a5)
    50201b4e:	0000d797          	auipc	a5,0xd
    50201b52:	27278793          	addi	a5,a5,626 # 5020edc0 <syscall>
    50201b56:	00003717          	auipc	a4,0x3
    50201b5a:	72c70713          	addi	a4,a4,1836 # 50205282 <do_waitpid>
    50201b5e:	f398                	sd	a4,32(a5)
    50201b60:	0000d797          	auipc	a5,0xd
    50201b64:	26078793          	addi	a5,a5,608 # 5020edc0 <syscall>
    50201b68:	00004717          	auipc	a4,0x4
    50201b6c:	d1c70713          	addi	a4,a4,-740 # 50205884 <do_getpid>
    50201b70:	fb98                	sd	a4,48(a5)
    50201b72:	0000d797          	auipc	a5,0xd
    50201b76:	24e78793          	addi	a5,a5,590 # 5020edc0 <syscall>
    50201b7a:	00004717          	auipc	a4,0x4
    50201b7e:	8c470713          	addi	a4,a4,-1852 # 5020543e <do_exec>
    50201b82:	e398                	sd	a4,0(a5)
    50201b84:	0000d797          	auipc	a5,0xd
    50201b88:	23c78793          	addi	a5,a5,572 # 5020edc0 <syscall>
    50201b8c:	00001717          	auipc	a4,0x1
    50201b90:	b4a70713          	addi	a4,a4,-1206 # 502026d6 <do_backspace>
    50201b94:	1ce7b823          	sd	a4,464(a5)
    50201b98:	0000d797          	auipc	a5,0xd
    50201b9c:	22878793          	addi	a5,a5,552 # 5020edc0 <syscall>
    50201ba0:	00002717          	auipc	a4,0x2
    50201ba4:	94c70713          	addi	a4,a4,-1716 # 502034ec <do_barrier_init>
    50201ba8:	16e7b023          	sd	a4,352(a5)
    50201bac:	0000d797          	auipc	a5,0xd
    50201bb0:	21478793          	addi	a5,a5,532 # 5020edc0 <syscall>
    50201bb4:	00002717          	auipc	a4,0x2
    50201bb8:	a0870713          	addi	a4,a4,-1528 # 502035bc <do_barrier_wait>
    50201bbc:	16e7b423          	sd	a4,360(a5)
    50201bc0:	0000d797          	auipc	a5,0xd
    50201bc4:	20078793          	addi	a5,a5,512 # 5020edc0 <syscall>
    50201bc8:	00002717          	auipc	a4,0x2
    50201bcc:	b7870713          	addi	a4,a4,-1160 # 50203740 <do_barrier_destroy>
    50201bd0:	16e7b823          	sd	a4,368(a5)
    50201bd4:	0000d797          	auipc	a5,0xd
    50201bd8:	1ec78793          	addi	a5,a5,492 # 5020edc0 <syscall>
    50201bdc:	00002717          	auipc	a4,0x2
    50201be0:	cbe70713          	addi	a4,a4,-834 # 5020389a <do_semaphore_init>
    50201be4:	18e7b023          	sd	a4,384(a5)
    50201be8:	0000d797          	auipc	a5,0xd
    50201bec:	1d878793          	addi	a5,a5,472 # 5020edc0 <syscall>
    50201bf0:	00002717          	auipc	a4,0x2
    50201bf4:	e1870713          	addi	a4,a4,-488 # 50203a08 <do_semaphore_up>
    50201bf8:	18e7b423          	sd	a4,392(a5)
    50201bfc:	0000d797          	auipc	a5,0xd
    50201c00:	1c478793          	addi	a5,a5,452 # 5020edc0 <syscall>
    50201c04:	00002717          	auipc	a4,0x2
    50201c08:	d3270713          	addi	a4,a4,-718 # 50203936 <do_semaphore_down>
    50201c0c:	18e7b823          	sd	a4,400(a5)
    50201c10:	0000d797          	auipc	a5,0xd
    50201c14:	1b078793          	addi	a5,a5,432 # 5020edc0 <syscall>
    50201c18:	00002717          	auipc	a4,0x2
    50201c1c:	e9870713          	addi	a4,a4,-360 # 50203ab0 <do_semaphore_destroy>
    50201c20:	18e7bc23          	sd	a4,408(a5)
    50201c24:	0000d797          	auipc	a5,0xd
    50201c28:	19c78793          	addi	a5,a5,412 # 5020edc0 <syscall>
    50201c2c:	00002717          	auipc	a4,0x2
    50201c30:	fd270713          	addi	a4,a4,-46 # 50203bfe <do_mbox_open>
    50201c34:	1ae7b023          	sd	a4,416(a5)
    50201c38:	0000d797          	auipc	a5,0xd
    50201c3c:	18878793          	addi	a5,a5,392 # 5020edc0 <syscall>
    50201c40:	00002717          	auipc	a4,0x2
    50201c44:	23e70713          	addi	a4,a4,574 # 50203e7e <do_mbox_close>
    50201c48:	1ae7b423          	sd	a4,424(a5)
    50201c4c:	0000d797          	auipc	a5,0xd
    50201c50:	17478793          	addi	a5,a5,372 # 5020edc0 <syscall>
    50201c54:	00002717          	auipc	a4,0x2
    50201c58:	30a70713          	addi	a4,a4,778 # 50203f5e <do_mbox_send>
    50201c5c:	1ae7b823          	sd	a4,432(a5)
    50201c60:	0000d797          	auipc	a5,0xd
    50201c64:	16078793          	addi	a5,a5,352 # 5020edc0 <syscall>
    50201c68:	00002717          	auipc	a4,0x2
    50201c6c:	52870713          	addi	a4,a4,1320 # 50204190 <do_mbox_recv>
    50201c70:	1ae7bc23          	sd	a4,440(a5)
    50201c74:	0000d797          	auipc	a5,0xd
    50201c78:	14c78793          	addi	a5,a5,332 # 5020edc0 <syscall>
    50201c7c:	00004717          	auipc	a4,0x4
    50201c80:	ec870713          	addi	a4,a4,-312 # 50205b44 <do_taskset>
    50201c84:	1ce7bc23          	sd	a4,472(a5)
    50201c88:	0000d797          	auipc	a5,0xd
    50201c8c:	13878793          	addi	a5,a5,312 # 5020edc0 <syscall>
    50201c90:	00004717          	auipc	a4,0x4
    50201c94:	fe070713          	addi	a4,a4,-32 # 50205c70 <do_taskset_bypid>
    50201c98:	1ee7b023          	sd	a4,480(a5)
    50201c9c:	0001                	nop
    50201c9e:	6422                	ld	s0,8(sp)
    50201ca0:	0141                	addi	sp,sp,16
    50201ca2:	8082                	ret

0000000050201ca4 <main>:
    50201ca4:	7179                	addi	sp,sp,-48
    50201ca6:	f406                	sd	ra,40(sp)
    50201ca8:	f022                	sd	s0,32(sp)
    50201caa:	ec26                	sd	s1,24(sp)
    50201cac:	1800                	addi	s0,sp,48
    50201cae:	d36ff0ef          	jal	ra,502011e4 <get_current_cpu_id>
    50201cb2:	87aa                	mv	a5,a0
    50201cb4:	1a078363          	beqz	a5,50201e5a <main+0x1b6>
    50201cb8:	734020ef          	jal	ra,502043ec <lock_kernel>
    50201cbc:	4505                	li	a0,1
    50201cbe:	1d0010ef          	jal	ra,50202e8e <allocKernelPage>
    50201cc2:	872a                	mv	a4,a0
    50201cc4:	6785                	lui	a5,0x1
    50201cc6:	97ba                	add	a5,a5,a4
    50201cc8:	fcf43c23          	sd	a5,-40(s0)
    50201ccc:	fd843703          	ld	a4,-40(s0)
    50201cd0:	00008797          	auipc	a5,0x8
    50201cd4:	81878793          	addi	a5,a5,-2024 # 502094e8 <newcore_pcb>
    50201cd8:	e398                	sd	a4,0(a5)
    50201cda:	fd843783          	ld	a5,-40(s0)
    50201cde:	ee878793          	addi	a5,a5,-280
    50201ce2:	fcf43c23          	sd	a5,-40(s0)
    50201ce6:	a031                	j	50201cf2 <main+0x4e>
    50201ce8:	fd843783          	ld	a5,-40(s0)
    50201cec:	17fd                	addi	a5,a5,-1
    50201cee:	fcf43c23          	sd	a5,-40(s0)
    50201cf2:	fd843783          	ld	a5,-40(s0)
    50201cf6:	8bbd                	andi	a5,a5,15
    50201cf8:	fbe5                	bnez	a5,50201ce8 <main+0x44>
    50201cfa:	657277b7          	lui	a5,0x65727
    50201cfe:	f6378793          	addi	a5,a5,-157 # 65726f63 <__BSS_END__+0x15517ea3>
    50201d02:	fcf42823          	sw	a5,-48(s0)
    50201d06:	fc040a23          	sb	zero,-44(s0)
    50201d0a:	cdaff0ef          	jal	ra,502011e4 <get_current_cpu_id>
    50201d0e:	87aa                	mv	a5,a0
    50201d10:	0ff7f793          	andi	a5,a5,255
    50201d14:	0307879b          	addiw	a5,a5,48
    50201d18:	0ff7f793          	andi	a5,a5,255
    50201d1c:	fcf40a23          	sb	a5,-44(s0)
    50201d20:	00007797          	auipc	a5,0x7
    50201d24:	7c878793          	addi	a5,a5,1992 # 502094e8 <newcore_pcb>
    50201d28:	639c                	ld	a5,0(a5)
    50201d2a:	fd040713          	addi	a4,s0,-48
    50201d2e:	fff8                	sd	a4,248(a5)
    50201d30:	00007797          	auipc	a5,0x7
    50201d34:	7b878793          	addi	a5,a5,1976 # 502094e8 <newcore_pcb>
    50201d38:	639c                	ld	a5,0(a5)
    50201d3a:	0c07ac23          	sw	zero,216(a5)
    50201d3e:	00007797          	auipc	a5,0x7
    50201d42:	7aa78793          	addi	a5,a5,1962 # 502094e8 <newcore_pcb>
    50201d46:	639c                	ld	a5,0(a5)
    50201d48:	1007a223          	sw	zero,260(a5)
    50201d4c:	c98ff0ef          	jal	ra,502011e4 <get_current_cpu_id>
    50201d50:	872a                	mv	a4,a0
    50201d52:	00007797          	auipc	a5,0x7
    50201d56:	79678793          	addi	a5,a5,1942 # 502094e8 <newcore_pcb>
    50201d5a:	639c                	ld	a5,0(a5)
    50201d5c:	2701                	sext.w	a4,a4
    50201d5e:	10e7a423          	sw	a4,264(a5)
    50201d62:	00007797          	auipc	a5,0x7
    50201d66:	78678793          	addi	a5,a5,1926 # 502094e8 <newcore_pcb>
    50201d6a:	639c                	ld	a5,0(a5)
    50201d6c:	4705                	li	a4,1
    50201d6e:	10e7a023          	sw	a4,256(a5)
    50201d72:	00007797          	auipc	a5,0x7
    50201d76:	77678793          	addi	a5,a5,1910 # 502094e8 <newcore_pcb>
    50201d7a:	639c                	ld	a5,0(a5)
    50201d7c:	fd843703          	ld	a4,-40(s0)
    50201d80:	e398                	sd	a4,0(a5)
    50201d82:	00007797          	auipc	a5,0x7
    50201d86:	76678793          	addi	a5,a5,1894 # 502094e8 <newcore_pcb>
    50201d8a:	639c                	ld	a5,0(a5)
    50201d8c:	fd843703          	ld	a4,-40(s0)
    50201d90:	e798                	sd	a4,8(a5)
    50201d92:	00007797          	auipc	a5,0x7
    50201d96:	75678793          	addi	a5,a5,1878 # 502094e8 <newcore_pcb>
    50201d9a:	639c                	ld	a5,0(a5)
    50201d9c:	0e07a823          	sw	zero,240(a5)
    50201da0:	00007797          	auipc	a5,0x7
    50201da4:	74878793          	addi	a5,a5,1864 # 502094e8 <newcore_pcb>
    50201da8:	639c                	ld	a5,0(a5)
    50201daa:	02078793          	addi	a5,a5,32
    50201dae:	853e                	mv	a0,a5
    50201db0:	c3aff0ef          	jal	ra,502011ea <list_init>
    50201db4:	00007797          	auipc	a5,0x7
    50201db8:	73478793          	addi	a5,a5,1844 # 502094e8 <newcore_pcb>
    50201dbc:	639c                	ld	a5,0(a5)
    50201dbe:	03078793          	addi	a5,a5,48
    50201dc2:	853e                	mv	a0,a5
    50201dc4:	c26ff0ef          	jal	ra,502011ea <list_init>
    50201dc8:	00007797          	auipc	a5,0x7
    50201dcc:	72078793          	addi	a5,a5,1824 # 502094e8 <newcore_pcb>
    50201dd0:	6384                	ld	s1,0(a5)
    50201dd2:	c12ff0ef          	jal	ra,502011e4 <get_current_cpu_id>
    50201dd6:	87aa                	mv	a5,a0
    50201dd8:	f4fc                	sd	a5,232(s1)
    50201dda:	00007797          	auipc	a5,0x7
    50201dde:	70e78793          	addi	a5,a5,1806 # 502094e8 <newcore_pcb>
    50201de2:	639c                	ld	a5,0(a5)
    50201de4:	04c78793          	addi	a5,a5,76
    50201de8:	853e                	mv	a0,a5
    50201dea:	256010ef          	jal	ra,50203040 <spin_lock_init>
    50201dee:	bf6ff0ef          	jal	ra,502011e4 <get_current_cpu_id>
    50201df2:	862a                	mv	a2,a0
    50201df4:	00007797          	auipc	a5,0x7
    50201df8:	6f478793          	addi	a5,a5,1780 # 502094e8 <newcore_pcb>
    50201dfc:	6398                	ld	a4,0(a5)
    50201dfe:	00007697          	auipc	a3,0x7
    50201e02:	6f268693          	addi	a3,a3,1778 # 502094f0 <current_running>
    50201e06:	00361793          	slli	a5,a2,0x3
    50201e0a:	97b6                	add	a5,a5,a3
    50201e0c:	e398                	sd	a4,0(a5)
    50201e0e:	823a                	mv	tp,a4
    50201e10:	00007797          	auipc	a5,0x7
    50201e14:	6d878793          	addi	a5,a5,1752 # 502094e8 <newcore_pcb>
    50201e18:	e398                	sd	a4,0(a5)
    50201e1a:	baaff0ef          	jal	ra,502011c4 <setup_exception>
    50201e1e:	60a020ef          	jal	ra,50204428 <get_ticks>
    50201e22:	872a                	mv	a4,a0
    50201e24:	000257b7          	lui	a5,0x25
    50201e28:	9f078793          	addi	a5,a5,-1552 # 249f0 <TEXT_START-0x501dc610>
    50201e2c:	97ba                	add	a5,a5,a4
    50201e2e:	853e                	mv	a0,a5
    50201e30:	d16ff0ef          	jal	ra,50201346 <bios_set_timer>
    50201e34:	bb0ff0ef          	jal	ra,502011e4 <get_current_cpu_id>
    50201e38:	87aa                	mv	a5,a0
    50201e3a:	85be                	mv	a1,a5
    50201e3c:	00005517          	auipc	a0,0x5
    50201e40:	c7450513          	addi	a0,a0,-908 # 50206ab0 <strcat+0x72>
    50201e44:	7e8040ef          	jal	ra,5020662c <printk>
    50201e48:	5c2020ef          	jal	ra,5020440a <unlock_kernel>
    50201e4c:	a18ff0ef          	jal	ra,50201064 <enable_interrupt>
    50201e50:	a00ff0ef          	jal	ra,50201050 <enable_preempt>
    50201e54:	10500073          	wfi
    50201e58:	bfe5                	j	50201e50 <main+0x1ac>
    50201e5a:	55c020ef          	jal	ra,502043b6 <smp_init>
    50201e5e:	58e020ef          	jal	ra,502043ec <lock_kernel>
    50201e62:	7bc020ef          	jal	ra,5020461e <little_lock_init>
    50201e66:	d34ff0ef          	jal	ra,5020139a <init_jmptab>
    50201e6a:	e60ff0ef          	jal	ra,502014ca <init_task_info>
    50201e6e:	869ff0ef          	jal	ra,502016d6 <init_pcb>
    50201e72:	00005517          	auipc	a0,0x5
    50201e76:	c6e50513          	addi	a0,a0,-914 # 50206ae0 <strcat+0xa2>
    50201e7a:	7b2040ef          	jal	ra,5020662c <printk>
    50201e7e:	4501                	li	a0,0
    50201e80:	ceeff0ef          	jal	ra,5020136e <bios_read_fdt>
    50201e84:	872a                	mv	a4,a0
    50201e86:	00005797          	auipc	a5,0x5
    50201e8a:	62278793          	addi	a5,a5,1570 # 502074a8 <time_base>
    50201e8e:	e398                	sd	a4,0(a5)
    50201e90:	144010ef          	jal	ra,50202fd4 <init_locks>
    50201e94:	00005517          	auipc	a0,0x5
    50201e98:	c7450513          	addi	a0,a0,-908 # 50206b08 <strcat+0xca>
    50201e9c:	790040ef          	jal	ra,5020662c <printk>
    50201ea0:	58c010ef          	jal	ra,5020342c <init_barriers>
    50201ea4:	00005517          	auipc	a0,0x5
    50201ea8:	c9c50513          	addi	a0,a0,-868 # 50206b40 <strcat+0x102>
    50201eac:	780040ef          	jal	ra,5020662c <printk>
    50201eb0:	15f010ef          	jal	ra,5020380e <init_semaphores>
    50201eb4:	00005517          	auipc	a0,0x5
    50201eb8:	cc450513          	addi	a0,a0,-828 # 50206b78 <strcat+0x13a>
    50201ebc:	770040ef          	jal	ra,5020662c <printk>
    50201ec0:	485010ef          	jal	ra,50203b44 <init_mbox>
    50201ec4:	00005517          	auipc	a0,0x5
    50201ec8:	cec50513          	addi	a0,a0,-788 # 50206bb0 <strcat+0x172>
    50201ecc:	760040ef          	jal	ra,5020662c <printk>
    50201ed0:	377000ef          	jal	ra,50202a46 <init_exception>
    50201ed4:	00005517          	auipc	a0,0x5
    50201ed8:	d1450513          	addi	a0,a0,-748 # 50206be8 <strcat+0x1aa>
    50201edc:	750040ef          	jal	ra,5020662c <printk>
    50201ee0:	b09ff0ef          	jal	ra,502019e8 <init_syscall>
    50201ee4:	00005517          	auipc	a0,0x5
    50201ee8:	d4450513          	addi	a0,a0,-700 # 50206c28 <strcat+0x1ea>
    50201eec:	740040ef          	jal	ra,5020662c <printk>
    50201ef0:	494000ef          	jal	ra,50202384 <init_screen>
    50201ef4:	00005517          	auipc	a0,0x5
    50201ef8:	d6450513          	addi	a0,a0,-668 # 50206c58 <strcat+0x21a>
    50201efc:	730040ef          	jal	ra,5020662c <printk>
    50201f00:	50a020ef          	jal	ra,5020440a <unlock_kernel>
    50201f04:	4d0020ef          	jal	ra,502043d4 <wakeup_other_hart>
    50201f08:	4e4020ef          	jal	ra,502043ec <lock_kernel>
    50201f0c:	ab8ff0ef          	jal	ra,502011c4 <setup_exception>
    50201f10:	518020ef          	jal	ra,50204428 <get_ticks>
    50201f14:	872a                	mv	a4,a0
    50201f16:	000257b7          	lui	a5,0x25
    50201f1a:	9f078793          	addi	a5,a5,-1552 # 249f0 <TEXT_START-0x501dc610>
    50201f1e:	97ba                	add	a5,a5,a4
    50201f20:	853e                	mv	a0,a5
    50201f22:	c24ff0ef          	jal	ra,50201346 <bios_set_timer>
    50201f26:	abeff0ef          	jal	ra,502011e4 <get_current_cpu_id>
    50201f2a:	87aa                	mv	a5,a0
    50201f2c:	85be                	mv	a1,a5
    50201f2e:	00005517          	auipc	a0,0x5
    50201f32:	d5a50513          	addi	a0,a0,-678 # 50206c88 <strcat+0x24a>
    50201f36:	6f6040ef          	jal	ra,5020662c <printk>
    50201f3a:	4d0020ef          	jal	ra,5020440a <unlock_kernel>
    50201f3e:	926ff0ef          	jal	ra,50201064 <enable_interrupt>
    50201f42:	90eff0ef          	jal	ra,50201050 <enable_preempt>
    50201f46:	10500073          	wfi
    50201f4a:	bfe5                	j	50201f42 <main+0x29e>

0000000050201f4c <call_bios>:
    50201f4c:	715d                	addi	sp,sp,-80
    50201f4e:	e486                	sd	ra,72(sp)
    50201f50:	e0a2                	sd	s0,64(sp)
    50201f52:	0880                	addi	s0,sp,80
    50201f54:	fca43c23          	sd	a0,-40(s0)
    50201f58:	fcb43823          	sd	a1,-48(s0)
    50201f5c:	fcc43423          	sd	a2,-56(s0)
    50201f60:	fcd43023          	sd	a3,-64(s0)
    50201f64:	fae43c23          	sd	a4,-72(s0)
    50201f68:	faf43823          	sd	a5,-80(s0)
    50201f6c:	501507b7          	lui	a5,0x50150
    50201f70:	fef43423          	sd	a5,-24(s0)
    50201f74:	fe843303          	ld	t1,-24(s0)
    50201f78:	fd843883          	ld	a7,-40(s0)
    50201f7c:	4801                	li	a6,0
    50201f7e:	4781                	li	a5,0
    50201f80:	fb043703          	ld	a4,-80(s0)
    50201f84:	fb843683          	ld	a3,-72(s0)
    50201f88:	fc043603          	ld	a2,-64(s0)
    50201f8c:	fc843583          	ld	a1,-56(s0)
    50201f90:	fd043503          	ld	a0,-48(s0)
    50201f94:	9302                	jalr	t1
    50201f96:	87aa                	mv	a5,a0
    50201f98:	853e                	mv	a0,a5
    50201f9a:	60a6                	ld	ra,72(sp)
    50201f9c:	6406                	ld	s0,64(sp)
    50201f9e:	6161                	addi	sp,sp,80
    50201fa0:	8082                	ret

0000000050201fa2 <port_write_ch>:
    50201fa2:	1101                	addi	sp,sp,-32
    50201fa4:	ec06                	sd	ra,24(sp)
    50201fa6:	e822                	sd	s0,16(sp)
    50201fa8:	1000                	addi	s0,sp,32
    50201faa:	87aa                	mv	a5,a0
    50201fac:	fef407a3          	sb	a5,-17(s0)
    50201fb0:	fef44583          	lbu	a1,-17(s0)
    50201fb4:	4781                	li	a5,0
    50201fb6:	4701                	li	a4,0
    50201fb8:	4681                	li	a3,0
    50201fba:	4601                	li	a2,0
    50201fbc:	4505                	li	a0,1
    50201fbe:	f8fff0ef          	jal	ra,50201f4c <call_bios>
    50201fc2:	0001                	nop
    50201fc4:	60e2                	ld	ra,24(sp)
    50201fc6:	6442                	ld	s0,16(sp)
    50201fc8:	6105                	addi	sp,sp,32
    50201fca:	8082                	ret

0000000050201fcc <port_write>:
    50201fcc:	1101                	addi	sp,sp,-32
    50201fce:	ec06                	sd	ra,24(sp)
    50201fd0:	e822                	sd	s0,16(sp)
    50201fd2:	1000                	addi	s0,sp,32
    50201fd4:	fea43423          	sd	a0,-24(s0)
    50201fd8:	fe843583          	ld	a1,-24(s0)
    50201fdc:	4781                	li	a5,0
    50201fde:	4701                	li	a4,0
    50201fe0:	4681                	li	a3,0
    50201fe2:	4601                	li	a2,0
    50201fe4:	4525                	li	a0,9
    50201fe6:	f67ff0ef          	jal	ra,50201f4c <call_bios>
    50201fea:	0001                	nop
    50201fec:	60e2                	ld	ra,24(sp)
    50201fee:	6442                	ld	s0,16(sp)
    50201ff0:	6105                	addi	sp,sp,32
    50201ff2:	8082                	ret

0000000050201ff4 <port_read_ch>:
    50201ff4:	1141                	addi	sp,sp,-16
    50201ff6:	e406                	sd	ra,8(sp)
    50201ff8:	e022                	sd	s0,0(sp)
    50201ffa:	0800                	addi	s0,sp,16
    50201ffc:	4781                	li	a5,0
    50201ffe:	4701                	li	a4,0
    50202000:	4681                	li	a3,0
    50202002:	4601                	li	a2,0
    50202004:	4581                	li	a1,0
    50202006:	4509                	li	a0,2
    50202008:	f45ff0ef          	jal	ra,50201f4c <call_bios>
    5020200c:	87aa                	mv	a5,a0
    5020200e:	2781                	sext.w	a5,a5
    50202010:	853e                	mv	a0,a5
    50202012:	60a2                	ld	ra,8(sp)
    50202014:	6402                	ld	s0,0(sp)
    50202016:	0141                	addi	sp,sp,16
    50202018:	8082                	ret

000000005020201a <sd_read>:
    5020201a:	1101                	addi	sp,sp,-32
    5020201c:	ec06                	sd	ra,24(sp)
    5020201e:	e822                	sd	s0,16(sp)
    50202020:	1000                	addi	s0,sp,32
    50202022:	87aa                	mv	a5,a0
    50202024:	86ae                	mv	a3,a1
    50202026:	8732                	mv	a4,a2
    50202028:	fef42623          	sw	a5,-20(s0)
    5020202c:	87b6                	mv	a5,a3
    5020202e:	fef42423          	sw	a5,-24(s0)
    50202032:	87ba                	mv	a5,a4
    50202034:	fef42223          	sw	a5,-28(s0)
    50202038:	fec46583          	lwu	a1,-20(s0)
    5020203c:	fe846603          	lwu	a2,-24(s0)
    50202040:	fe446683          	lwu	a3,-28(s0)
    50202044:	4781                	li	a5,0
    50202046:	4701                	li	a4,0
    50202048:	452d                	li	a0,11
    5020204a:	f03ff0ef          	jal	ra,50201f4c <call_bios>
    5020204e:	87aa                	mv	a5,a0
    50202050:	2781                	sext.w	a5,a5
    50202052:	853e                	mv	a0,a5
    50202054:	60e2                	ld	ra,24(sp)
    50202056:	6442                	ld	s0,16(sp)
    50202058:	6105                	addi	sp,sp,32
    5020205a:	8082                	ret

000000005020205c <sd_write>:
    5020205c:	1101                	addi	sp,sp,-32
    5020205e:	ec06                	sd	ra,24(sp)
    50202060:	e822                	sd	s0,16(sp)
    50202062:	1000                	addi	s0,sp,32
    50202064:	87aa                	mv	a5,a0
    50202066:	86ae                	mv	a3,a1
    50202068:	8732                	mv	a4,a2
    5020206a:	fef42623          	sw	a5,-20(s0)
    5020206e:	87b6                	mv	a5,a3
    50202070:	fef42423          	sw	a5,-24(s0)
    50202074:	87ba                	mv	a5,a4
    50202076:	fef42223          	sw	a5,-28(s0)
    5020207a:	fec46583          	lwu	a1,-20(s0)
    5020207e:	fe846603          	lwu	a2,-24(s0)
    50202082:	fe446683          	lwu	a3,-28(s0)
    50202086:	4781                	li	a5,0
    50202088:	4701                	li	a4,0
    5020208a:	4529                	li	a0,10
    5020208c:	ec1ff0ef          	jal	ra,50201f4c <call_bios>
    50202090:	87aa                	mv	a5,a0
    50202092:	2781                	sext.w	a5,a5
    50202094:	853e                	mv	a0,a5
    50202096:	60e2                	ld	ra,24(sp)
    50202098:	6442                	ld	s0,16(sp)
    5020209a:	6105                	addi	sp,sp,32
    5020209c:	8082                	ret

000000005020209e <set_timer>:
    5020209e:	1101                	addi	sp,sp,-32
    502020a0:	ec06                	sd	ra,24(sp)
    502020a2:	e822                	sd	s0,16(sp)
    502020a4:	1000                	addi	s0,sp,32
    502020a6:	fea43423          	sd	a0,-24(s0)
    502020aa:	fe843583          	ld	a1,-24(s0)
    502020ae:	4781                	li	a5,0
    502020b0:	4701                	li	a4,0
    502020b2:	4681                	li	a3,0
    502020b4:	4601                	li	a2,0
    502020b6:	4501                	li	a0,0
    502020b8:	e95ff0ef          	jal	ra,50201f4c <call_bios>
    502020bc:	0001                	nop
    502020be:	60e2                	ld	ra,24(sp)
    502020c0:	6442                	ld	s0,16(sp)
    502020c2:	6105                	addi	sp,sp,32
    502020c4:	8082                	ret

00000000502020c6 <read_fdt>:
    502020c6:	1101                	addi	sp,sp,-32
    502020c8:	ec06                	sd	ra,24(sp)
    502020ca:	e822                	sd	s0,16(sp)
    502020cc:	1000                	addi	s0,sp,32
    502020ce:	87aa                	mv	a5,a0
    502020d0:	fef42623          	sw	a5,-20(s0)
    502020d4:	fec46583          	lwu	a1,-20(s0)
    502020d8:	4781                	li	a5,0
    502020da:	4701                	li	a4,0
    502020dc:	4681                	li	a3,0
    502020de:	4601                	li	a2,0
    502020e0:	4531                	li	a0,12
    502020e2:	e6bff0ef          	jal	ra,50201f4c <call_bios>
    502020e6:	87aa                	mv	a5,a0
    502020e8:	853e                	mv	a0,a5
    502020ea:	60e2                	ld	ra,24(sp)
    502020ec:	6442                	ld	s0,16(sp)
    502020ee:	6105                	addi	sp,sp,32
    502020f0:	8082                	ret

00000000502020f2 <qemu_logging>:
    502020f2:	1101                	addi	sp,sp,-32
    502020f4:	ec06                	sd	ra,24(sp)
    502020f6:	e822                	sd	s0,16(sp)
    502020f8:	1000                	addi	s0,sp,32
    502020fa:	fea43423          	sd	a0,-24(s0)
    502020fe:	fe843583          	ld	a1,-24(s0)
    50202102:	4781                	li	a5,0
    50202104:	4701                	li	a4,0
    50202106:	4681                	li	a3,0
    50202108:	4601                	li	a2,0
    5020210a:	4539                	li	a0,14
    5020210c:	e41ff0ef          	jal	ra,50201f4c <call_bios>
    50202110:	0001                	nop
    50202112:	60e2                	ld	ra,24(sp)
    50202114:	6442                	ld	s0,16(sp)
    50202116:	6105                	addi	sp,sp,32
    50202118:	8082                	ret

000000005020211a <send_ipi>:
    5020211a:	1101                	addi	sp,sp,-32
    5020211c:	ec06                	sd	ra,24(sp)
    5020211e:	e822                	sd	s0,16(sp)
    50202120:	1000                	addi	s0,sp,32
    50202122:	fea43423          	sd	a0,-24(s0)
    50202126:	fe843583          	ld	a1,-24(s0)
    5020212a:	4781                	li	a5,0
    5020212c:	4701                	li	a4,0
    5020212e:	4681                	li	a3,0
    50202130:	4601                	li	a2,0
    50202132:	4511                	li	a0,4
    50202134:	e19ff0ef          	jal	ra,50201f4c <call_bios>
    50202138:	0001                	nop
    5020213a:	60e2                	ld	ra,24(sp)
    5020213c:	6442                	ld	s0,16(sp)
    5020213e:	6105                	addi	sp,sp,32
    50202140:	8082                	ret

0000000050202142 <call_jmptab>:
    50202142:	715d                	addi	sp,sp,-80
    50202144:	e486                	sd	ra,72(sp)
    50202146:	e0a2                	sd	s0,64(sp)
    50202148:	0880                	addi	s0,sp,80
    5020214a:	fca43c23          	sd	a0,-40(s0)
    5020214e:	fcb43823          	sd	a1,-48(s0)
    50202152:	fcc43423          	sd	a2,-56(s0)
    50202156:	fcd43023          	sd	a3,-64(s0)
    5020215a:	fae43c23          	sd	a4,-72(s0)
    5020215e:	faf43823          	sd	a5,-80(s0)
    50202162:	fd843703          	ld	a4,-40(s0)
    50202166:	0a4007b7          	lui	a5,0xa400
    5020216a:	1781                	addi	a5,a5,-32
    5020216c:	97ba                	add	a5,a5,a4
    5020216e:	078e                	slli	a5,a5,0x3
    50202170:	639c                	ld	a5,0(a5)
    50202172:	fef43423          	sd	a5,-24(s0)
    50202176:	fe843783          	ld	a5,-24(s0)
    5020217a:	fef43023          	sd	a5,-32(s0)
    5020217e:	fe043783          	ld	a5,-32(s0)
    50202182:	fb043703          	ld	a4,-80(s0)
    50202186:	fb843683          	ld	a3,-72(s0)
    5020218a:	fc043603          	ld	a2,-64(s0)
    5020218e:	fc843583          	ld	a1,-56(s0)
    50202192:	fd043503          	ld	a0,-48(s0)
    50202196:	9782                	jalr	a5
    50202198:	87aa                	mv	a5,a0
    5020219a:	853e                	mv	a0,a5
    5020219c:	60a6                	ld	ra,72(sp)
    5020219e:	6406                	ld	s0,64(sp)
    502021a0:	6161                	addi	sp,sp,80
    502021a2:	8082                	ret

00000000502021a4 <bios_putchar>:
    502021a4:	1101                	addi	sp,sp,-32
    502021a6:	ec06                	sd	ra,24(sp)
    502021a8:	e822                	sd	s0,16(sp)
    502021aa:	1000                	addi	s0,sp,32
    502021ac:	87aa                	mv	a5,a0
    502021ae:	fef42623          	sw	a5,-20(s0)
    502021b2:	fec42583          	lw	a1,-20(s0)
    502021b6:	4781                	li	a5,0
    502021b8:	4701                	li	a4,0
    502021ba:	4681                	li	a3,0
    502021bc:	4601                	li	a2,0
    502021be:	4505                	li	a0,1
    502021c0:	f83ff0ef          	jal	ra,50202142 <call_jmptab>
    502021c4:	0001                	nop
    502021c6:	60e2                	ld	ra,24(sp)
    502021c8:	6442                	ld	s0,16(sp)
    502021ca:	6105                	addi	sp,sp,32
    502021cc:	8082                	ret

00000000502021ce <vt100_move_cursor>:
    502021ce:	1101                	addi	sp,sp,-32
    502021d0:	ec06                	sd	ra,24(sp)
    502021d2:	e822                	sd	s0,16(sp)
    502021d4:	1000                	addi	s0,sp,32
    502021d6:	87aa                	mv	a5,a0
    502021d8:	872e                	mv	a4,a1
    502021da:	fef42623          	sw	a5,-20(s0)
    502021de:	87ba                	mv	a5,a4
    502021e0:	fef42423          	sw	a5,-24(s0)
    502021e4:	fec42703          	lw	a4,-20(s0)
    502021e8:	fe842783          	lw	a5,-24(s0)
    502021ec:	86ba                	mv	a3,a4
    502021ee:	863e                	mv	a2,a5
    502021f0:	45ed                	li	a1,27
    502021f2:	00005517          	auipc	a0,0x5
    502021f6:	ac650513          	addi	a0,a0,-1338 # 50206cb8 <strcat+0x27a>
    502021fa:	48a040ef          	jal	ra,50206684 <printv>
    502021fe:	0001                	nop
    50202200:	60e2                	ld	ra,24(sp)
    50202202:	6442                	ld	s0,16(sp)
    50202204:	6105                	addi	sp,sp,32
    50202206:	8082                	ret

0000000050202208 <vt100_clear>:
    50202208:	1141                	addi	sp,sp,-16
    5020220a:	e406                	sd	ra,8(sp)
    5020220c:	e022                	sd	s0,0(sp)
    5020220e:	0800                	addi	s0,sp,16
    50202210:	45ed                	li	a1,27
    50202212:	00005517          	auipc	a0,0x5
    50202216:	ab650513          	addi	a0,a0,-1354 # 50206cc8 <strcat+0x28a>
    5020221a:	46a040ef          	jal	ra,50206684 <printv>
    5020221e:	0001                	nop
    50202220:	60a2                	ld	ra,8(sp)
    50202222:	6402                	ld	s0,0(sp)
    50202224:	0141                	addi	sp,sp,16
    50202226:	8082                	ret

0000000050202228 <vt100_hidden_cursor>:
    50202228:	1141                	addi	sp,sp,-16
    5020222a:	e406                	sd	ra,8(sp)
    5020222c:	e022                	sd	s0,0(sp)
    5020222e:	0800                	addi	s0,sp,16
    50202230:	45ed                	li	a1,27
    50202232:	00005517          	auipc	a0,0x5
    50202236:	a9e50513          	addi	a0,a0,-1378 # 50206cd0 <strcat+0x292>
    5020223a:	44a040ef          	jal	ra,50206684 <printv>
    5020223e:	0001                	nop
    50202240:	60a2                	ld	ra,8(sp)
    50202242:	6402                	ld	s0,0(sp)
    50202244:	0141                	addi	sp,sp,16
    50202246:	8082                	ret

0000000050202248 <screen_write_ch>:
    50202248:	7179                	addi	sp,sp,-48
    5020224a:	f406                	sd	ra,40(sp)
    5020224c:	f022                	sd	s0,32(sp)
    5020224e:	ec26                	sd	s1,24(sp)
    50202250:	1800                	addi	s0,sp,48
    50202252:	87aa                	mv	a5,a0
    50202254:	fcf40fa3          	sb	a5,-33(s0)
    50202258:	00007517          	auipc	a0,0x7
    5020225c:	2f850513          	addi	a0,a0,760 # 50209550 <screen_lock>
    50202260:	649000ef          	jal	ra,502030a8 <spin_lock_acquire>
    50202264:	fdf44783          	lbu	a5,-33(s0)
    50202268:	0ff7f713          	andi	a4,a5,255
    5020226c:	47a9                	li	a5,10
    5020226e:	08f71363          	bne	a4,a5,502022f4 <screen_write_ch+0xac>
    50202272:	f73fe0ef          	jal	ra,502011e4 <get_current_cpu_id>
    50202276:	87aa                	mv	a5,a0
    50202278:	00007717          	auipc	a4,0x7
    5020227c:	27870713          	addi	a4,a4,632 # 502094f0 <current_running>
    50202280:	078e                	slli	a5,a5,0x3
    50202282:	97ba                	add	a5,a5,a4
    50202284:	639c                	ld	a5,0(a5)
    50202286:	1007a223          	sw	zero,260(a5) # a400104 <TEXT_START-0x45e00efc>
    5020228a:	f5bfe0ef          	jal	ra,502011e4 <get_current_cpu_id>
    5020228e:	87aa                	mv	a5,a0
    50202290:	00007717          	auipc	a4,0x7
    50202294:	26070713          	addi	a4,a4,608 # 502094f0 <current_running>
    50202298:	078e                	slli	a5,a5,0x3
    5020229a:	97ba                	add	a5,a5,a4
    5020229c:	639c                	ld	a5,0(a5)
    5020229e:	1087a703          	lw	a4,264(a5)
    502022a2:	2705                	addiw	a4,a4,1
    502022a4:	2701                	sext.w	a4,a4
    502022a6:	10e7a423          	sw	a4,264(a5)
    502022aa:	f3bfe0ef          	jal	ra,502011e4 <get_current_cpu_id>
    502022ae:	87aa                	mv	a5,a0
    502022b0:	00007717          	auipc	a4,0x7
    502022b4:	24070713          	addi	a4,a4,576 # 502094f0 <current_running>
    502022b8:	078e                	slli	a5,a5,0x3
    502022ba:	97ba                	add	a5,a5,a4
    502022bc:	639c                	ld	a5,0(a5)
    502022be:	1087a783          	lw	a5,264(a5)
    502022c2:	873e                	mv	a4,a5
    502022c4:	02700793          	li	a5,39
    502022c8:	0af71263          	bne	a4,a5,5020236c <screen_write_ch+0x124>
    502022cc:	4551                	li	a0,20
    502022ce:	49e000ef          	jal	ra,5020276c <screen_scroll>
    502022d2:	f13fe0ef          	jal	ra,502011e4 <get_current_cpu_id>
    502022d6:	87aa                	mv	a5,a0
    502022d8:	00007717          	auipc	a4,0x7
    502022dc:	21870713          	addi	a4,a4,536 # 502094f0 <current_running>
    502022e0:	078e                	slli	a5,a5,0x3
    502022e2:	97ba                	add	a5,a5,a4
    502022e4:	639c                	ld	a5,0(a5)
    502022e6:	1087a703          	lw	a4,264(a5)
    502022ea:	377d                	addiw	a4,a4,-1
    502022ec:	2701                	sext.w	a4,a4
    502022ee:	10e7a423          	sw	a4,264(a5)
    502022f2:	a8ad                	j	5020236c <screen_write_ch+0x124>
    502022f4:	ef1fe0ef          	jal	ra,502011e4 <get_current_cpu_id>
    502022f8:	87aa                	mv	a5,a0
    502022fa:	00007717          	auipc	a4,0x7
    502022fe:	1f670713          	addi	a4,a4,502 # 502094f0 <current_running>
    50202302:	078e                	slli	a5,a5,0x3
    50202304:	97ba                	add	a5,a5,a4
    50202306:	639c                	ld	a5,0(a5)
    50202308:	1087a783          	lw	a5,264(a5)
    5020230c:	873e                	mv	a4,a5
    5020230e:	87ba                	mv	a5,a4
    50202310:	0027979b          	slliw	a5,a5,0x2
    50202314:	9fb9                	addw	a5,a5,a4
    50202316:	0047979b          	slliw	a5,a5,0x4
    5020231a:	0007849b          	sext.w	s1,a5
    5020231e:	ec7fe0ef          	jal	ra,502011e4 <get_current_cpu_id>
    50202322:	87aa                	mv	a5,a0
    50202324:	00007717          	auipc	a4,0x7
    50202328:	1cc70713          	addi	a4,a4,460 # 502094f0 <current_running>
    5020232c:	078e                	slli	a5,a5,0x3
    5020232e:	97ba                	add	a5,a5,a4
    50202330:	639c                	ld	a5,0(a5)
    50202332:	1047a783          	lw	a5,260(a5)
    50202336:	9fa5                	addw	a5,a5,s1
    50202338:	2781                	sext.w	a5,a5
    5020233a:	00005717          	auipc	a4,0x5
    5020233e:	18670713          	addi	a4,a4,390 # 502074c0 <new_screen>
    50202342:	97ba                	add	a5,a5,a4
    50202344:	fdf44703          	lbu	a4,-33(s0)
    50202348:	00e78023          	sb	a4,0(a5)
    5020234c:	e99fe0ef          	jal	ra,502011e4 <get_current_cpu_id>
    50202350:	87aa                	mv	a5,a0
    50202352:	00007717          	auipc	a4,0x7
    50202356:	19e70713          	addi	a4,a4,414 # 502094f0 <current_running>
    5020235a:	078e                	slli	a5,a5,0x3
    5020235c:	97ba                	add	a5,a5,a4
    5020235e:	639c                	ld	a5,0(a5)
    50202360:	1047a703          	lw	a4,260(a5)
    50202364:	2705                	addiw	a4,a4,1
    50202366:	2701                	sext.w	a4,a4
    50202368:	10e7a223          	sw	a4,260(a5)
    5020236c:	00007517          	auipc	a0,0x7
    50202370:	1e450513          	addi	a0,a0,484 # 50209550 <screen_lock>
    50202374:	56f000ef          	jal	ra,502030e2 <spin_lock_release>
    50202378:	0001                	nop
    5020237a:	70a2                	ld	ra,40(sp)
    5020237c:	7402                	ld	s0,32(sp)
    5020237e:	64e2                	ld	s1,24(sp)
    50202380:	6145                	addi	sp,sp,48
    50202382:	8082                	ret

0000000050202384 <init_screen>:
    50202384:	1141                	addi	sp,sp,-16
    50202386:	e406                	sd	ra,8(sp)
    50202388:	e022                	sd	s0,0(sp)
    5020238a:	0800                	addi	s0,sp,16
    5020238c:	00007517          	auipc	a0,0x7
    50202390:	1c450513          	addi	a0,a0,452 # 50209550 <screen_lock>
    50202394:	4ad000ef          	jal	ra,50203040 <spin_lock_init>
    50202398:	e91ff0ef          	jal	ra,50202228 <vt100_hidden_cursor>
    5020239c:	e6dff0ef          	jal	ra,50202208 <vt100_clear>
    502023a0:	00e000ef          	jal	ra,502023ae <screen_clear>
    502023a4:	0001                	nop
    502023a6:	60a2                	ld	ra,8(sp)
    502023a8:	6402                	ld	s0,0(sp)
    502023aa:	0141                	addi	sp,sp,16
    502023ac:	8082                	ret

00000000502023ae <screen_clear>:
    502023ae:	1101                	addi	sp,sp,-32
    502023b0:	ec06                	sd	ra,24(sp)
    502023b2:	e822                	sd	s0,16(sp)
    502023b4:	1000                	addi	s0,sp,32
    502023b6:	00007517          	auipc	a0,0x7
    502023ba:	19a50513          	addi	a0,a0,410 # 50209550 <screen_lock>
    502023be:	4eb000ef          	jal	ra,502030a8 <spin_lock_acquire>
    502023c2:	fe042623          	sw	zero,-20(s0)
    502023c6:	a8a1                	j	5020241e <screen_clear+0x70>
    502023c8:	fe042423          	sw	zero,-24(s0)
    502023cc:	a825                	j	50202404 <screen_clear+0x56>
    502023ce:	fec42703          	lw	a4,-20(s0)
    502023d2:	87ba                	mv	a5,a4
    502023d4:	0027979b          	slliw	a5,a5,0x2
    502023d8:	9fb9                	addw	a5,a5,a4
    502023da:	0047979b          	slliw	a5,a5,0x4
    502023de:	2781                	sext.w	a5,a5
    502023e0:	fe842703          	lw	a4,-24(s0)
    502023e4:	9fb9                	addw	a5,a5,a4
    502023e6:	2781                	sext.w	a5,a5
    502023e8:	00005717          	auipc	a4,0x5
    502023ec:	0d870713          	addi	a4,a4,216 # 502074c0 <new_screen>
    502023f0:	97ba                	add	a5,a5,a4
    502023f2:	02000713          	li	a4,32
    502023f6:	00e78023          	sb	a4,0(a5)
    502023fa:	fe842783          	lw	a5,-24(s0)
    502023fe:	2785                	addiw	a5,a5,1
    50202400:	fef42423          	sw	a5,-24(s0)
    50202404:	fe842783          	lw	a5,-24(s0)
    50202408:	0007871b          	sext.w	a4,a5
    5020240c:	04f00793          	li	a5,79
    50202410:	fae7dfe3          	bge	a5,a4,502023ce <screen_clear+0x20>
    50202414:	fec42783          	lw	a5,-20(s0)
    50202418:	2785                	addiw	a5,a5,1
    5020241a:	fef42623          	sw	a5,-20(s0)
    5020241e:	fec42783          	lw	a5,-20(s0)
    50202422:	0007871b          	sext.w	a4,a5
    50202426:	02700793          	li	a5,39
    5020242a:	f8e7dfe3          	bge	a5,a4,502023c8 <screen_clear+0x1a>
    5020242e:	db7fe0ef          	jal	ra,502011e4 <get_current_cpu_id>
    50202432:	87aa                	mv	a5,a0
    50202434:	00007717          	auipc	a4,0x7
    50202438:	0bc70713          	addi	a4,a4,188 # 502094f0 <current_running>
    5020243c:	078e                	slli	a5,a5,0x3
    5020243e:	97ba                	add	a5,a5,a4
    50202440:	639c                	ld	a5,0(a5)
    50202442:	1007a223          	sw	zero,260(a5)
    50202446:	d9ffe0ef          	jal	ra,502011e4 <get_current_cpu_id>
    5020244a:	87aa                	mv	a5,a0
    5020244c:	00007717          	auipc	a4,0x7
    50202450:	0a470713          	addi	a4,a4,164 # 502094f0 <current_running>
    50202454:	078e                	slli	a5,a5,0x3
    50202456:	97ba                	add	a5,a5,a4
    50202458:	639c                	ld	a5,0(a5)
    5020245a:	1007a423          	sw	zero,264(a5)
    5020245e:	00007517          	auipc	a0,0x7
    50202462:	0f250513          	addi	a0,a0,242 # 50209550 <screen_lock>
    50202466:	47d000ef          	jal	ra,502030e2 <spin_lock_release>
    5020246a:	0d4000ef          	jal	ra,5020253e <screen_reflush>
    5020246e:	0001                	nop
    50202470:	60e2                	ld	ra,24(sp)
    50202472:	6442                	ld	s0,16(sp)
    50202474:	6105                	addi	sp,sp,32
    50202476:	8082                	ret

0000000050202478 <screen_move_cursor>:
    50202478:	1101                	addi	sp,sp,-32
    5020247a:	ec06                	sd	ra,24(sp)
    5020247c:	e822                	sd	s0,16(sp)
    5020247e:	1000                	addi	s0,sp,32
    50202480:	87aa                	mv	a5,a0
    50202482:	872e                	mv	a4,a1
    50202484:	fef42623          	sw	a5,-20(s0)
    50202488:	87ba                	mv	a5,a4
    5020248a:	fef42423          	sw	a5,-24(s0)
    5020248e:	d57fe0ef          	jal	ra,502011e4 <get_current_cpu_id>
    50202492:	87aa                	mv	a5,a0
    50202494:	00007717          	auipc	a4,0x7
    50202498:	05c70713          	addi	a4,a4,92 # 502094f0 <current_running>
    5020249c:	078e                	slli	a5,a5,0x3
    5020249e:	97ba                	add	a5,a5,a4
    502024a0:	639c                	ld	a5,0(a5)
    502024a2:	fec42703          	lw	a4,-20(s0)
    502024a6:	10e7a223          	sw	a4,260(a5)
    502024aa:	d3bfe0ef          	jal	ra,502011e4 <get_current_cpu_id>
    502024ae:	87aa                	mv	a5,a0
    502024b0:	00007717          	auipc	a4,0x7
    502024b4:	04070713          	addi	a4,a4,64 # 502094f0 <current_running>
    502024b8:	078e                	slli	a5,a5,0x3
    502024ba:	97ba                	add	a5,a5,a4
    502024bc:	639c                	ld	a5,0(a5)
    502024be:	fe842703          	lw	a4,-24(s0)
    502024c2:	10e7a423          	sw	a4,264(a5)
    502024c6:	fe842703          	lw	a4,-24(s0)
    502024ca:	fec42783          	lw	a5,-20(s0)
    502024ce:	85ba                	mv	a1,a4
    502024d0:	853e                	mv	a0,a5
    502024d2:	cfdff0ef          	jal	ra,502021ce <vt100_move_cursor>
    502024d6:	0001                	nop
    502024d8:	60e2                	ld	ra,24(sp)
    502024da:	6442                	ld	s0,16(sp)
    502024dc:	6105                	addi	sp,sp,32
    502024de:	8082                	ret

00000000502024e0 <screen_write>:
    502024e0:	7179                	addi	sp,sp,-48
    502024e2:	f406                	sd	ra,40(sp)
    502024e4:	f022                	sd	s0,32(sp)
    502024e6:	1800                	addi	s0,sp,48
    502024e8:	fca43c23          	sd	a0,-40(s0)
    502024ec:	fe042623          	sw	zero,-20(s0)
    502024f0:	fd843503          	ld	a0,-40(s0)
    502024f4:	320040ef          	jal	ra,50206814 <strlen>
    502024f8:	87aa                	mv	a5,a0
    502024fa:	fef42423          	sw	a5,-24(s0)
    502024fe:	fe042623          	sw	zero,-20(s0)
    50202502:	a005                	j	50202522 <screen_write+0x42>
    50202504:	fec42783          	lw	a5,-20(s0)
    50202508:	fd843703          	ld	a4,-40(s0)
    5020250c:	97ba                	add	a5,a5,a4
    5020250e:	0007c783          	lbu	a5,0(a5)
    50202512:	853e                	mv	a0,a5
    50202514:	d35ff0ef          	jal	ra,50202248 <screen_write_ch>
    50202518:	fec42783          	lw	a5,-20(s0)
    5020251c:	2785                	addiw	a5,a5,1
    5020251e:	fef42623          	sw	a5,-20(s0)
    50202522:	fec42703          	lw	a4,-20(s0)
    50202526:	fe842783          	lw	a5,-24(s0)
    5020252a:	2701                	sext.w	a4,a4
    5020252c:	2781                	sext.w	a5,a5
    5020252e:	fcf74be3          	blt	a4,a5,50202504 <screen_write+0x24>
    50202532:	0001                	nop
    50202534:	0001                	nop
    50202536:	70a2                	ld	ra,40(sp)
    50202538:	7402                	ld	s0,32(sp)
    5020253a:	6145                	addi	sp,sp,48
    5020253c:	8082                	ret

000000005020253e <screen_reflush>:
    5020253e:	7179                	addi	sp,sp,-48
    50202540:	f406                	sd	ra,40(sp)
    50202542:	f022                	sd	s0,32(sp)
    50202544:	ec26                	sd	s1,24(sp)
    50202546:	1800                	addi	s0,sp,48
    50202548:	00007517          	auipc	a0,0x7
    5020254c:	00850513          	addi	a0,a0,8 # 50209550 <screen_lock>
    50202550:	359000ef          	jal	ra,502030a8 <spin_lock_acquire>
    50202554:	fc042e23          	sw	zero,-36(s0)
    50202558:	aa39                	j	50202676 <screen_reflush+0x138>
    5020255a:	fc042c23          	sw	zero,-40(s0)
    5020255e:	a8fd                	j	5020265c <screen_reflush+0x11e>
    50202560:	fdc42703          	lw	a4,-36(s0)
    50202564:	87ba                	mv	a5,a4
    50202566:	0027979b          	slliw	a5,a5,0x2
    5020256a:	9fb9                	addw	a5,a5,a4
    5020256c:	0047979b          	slliw	a5,a5,0x4
    50202570:	2781                	sext.w	a5,a5
    50202572:	fd842703          	lw	a4,-40(s0)
    50202576:	9fb9                	addw	a5,a5,a4
    50202578:	2781                	sext.w	a5,a5
    5020257a:	00005717          	auipc	a4,0x5
    5020257e:	f4670713          	addi	a4,a4,-186 # 502074c0 <new_screen>
    50202582:	97ba                	add	a5,a5,a4
    50202584:	0007c683          	lbu	a3,0(a5)
    50202588:	fdc42703          	lw	a4,-36(s0)
    5020258c:	87ba                	mv	a5,a4
    5020258e:	0027979b          	slliw	a5,a5,0x2
    50202592:	9fb9                	addw	a5,a5,a4
    50202594:	0047979b          	slliw	a5,a5,0x4
    50202598:	2781                	sext.w	a5,a5
    5020259a:	fd842703          	lw	a4,-40(s0)
    5020259e:	9fb9                	addw	a5,a5,a4
    502025a0:	2781                	sext.w	a5,a5
    502025a2:	00006717          	auipc	a4,0x6
    502025a6:	b9e70713          	addi	a4,a4,-1122 # 50208140 <old_screen>
    502025aa:	97ba                	add	a5,a5,a4
    502025ac:	0007c783          	lbu	a5,0(a5)
    502025b0:	8736                	mv	a4,a3
    502025b2:	0af70063          	beq	a4,a5,50202652 <screen_reflush+0x114>
    502025b6:	fd842783          	lw	a5,-40(s0)
    502025ba:	2785                	addiw	a5,a5,1
    502025bc:	0007871b          	sext.w	a4,a5
    502025c0:	fdc42783          	lw	a5,-36(s0)
    502025c4:	2785                	addiw	a5,a5,1
    502025c6:	2781                	sext.w	a5,a5
    502025c8:	85be                	mv	a1,a5
    502025ca:	853a                	mv	a0,a4
    502025cc:	c03ff0ef          	jal	ra,502021ce <vt100_move_cursor>
    502025d0:	fdc42703          	lw	a4,-36(s0)
    502025d4:	87ba                	mv	a5,a4
    502025d6:	0027979b          	slliw	a5,a5,0x2
    502025da:	9fb9                	addw	a5,a5,a4
    502025dc:	0047979b          	slliw	a5,a5,0x4
    502025e0:	2781                	sext.w	a5,a5
    502025e2:	fd842703          	lw	a4,-40(s0)
    502025e6:	9fb9                	addw	a5,a5,a4
    502025e8:	2781                	sext.w	a5,a5
    502025ea:	00005717          	auipc	a4,0x5
    502025ee:	ed670713          	addi	a4,a4,-298 # 502074c0 <new_screen>
    502025f2:	97ba                	add	a5,a5,a4
    502025f4:	0007c783          	lbu	a5,0(a5)
    502025f8:	2781                	sext.w	a5,a5
    502025fa:	853e                	mv	a0,a5
    502025fc:	ba9ff0ef          	jal	ra,502021a4 <bios_putchar>
    50202600:	fdc42703          	lw	a4,-36(s0)
    50202604:	87ba                	mv	a5,a4
    50202606:	0027979b          	slliw	a5,a5,0x2
    5020260a:	9fb9                	addw	a5,a5,a4
    5020260c:	0047979b          	slliw	a5,a5,0x4
    50202610:	2781                	sext.w	a5,a5
    50202612:	fd842703          	lw	a4,-40(s0)
    50202616:	9fb9                	addw	a5,a5,a4
    50202618:	0007869b          	sext.w	a3,a5
    5020261c:	fdc42703          	lw	a4,-36(s0)
    50202620:	87ba                	mv	a5,a4
    50202622:	0027979b          	slliw	a5,a5,0x2
    50202626:	9fb9                	addw	a5,a5,a4
    50202628:	0047979b          	slliw	a5,a5,0x4
    5020262c:	2781                	sext.w	a5,a5
    5020262e:	fd842703          	lw	a4,-40(s0)
    50202632:	9fb9                	addw	a5,a5,a4
    50202634:	2781                	sext.w	a5,a5
    50202636:	00005717          	auipc	a4,0x5
    5020263a:	e8a70713          	addi	a4,a4,-374 # 502074c0 <new_screen>
    5020263e:	9736                	add	a4,a4,a3
    50202640:	00074703          	lbu	a4,0(a4)
    50202644:	00006697          	auipc	a3,0x6
    50202648:	afc68693          	addi	a3,a3,-1284 # 50208140 <old_screen>
    5020264c:	97b6                	add	a5,a5,a3
    5020264e:	00e78023          	sb	a4,0(a5)
    50202652:	fd842783          	lw	a5,-40(s0)
    50202656:	2785                	addiw	a5,a5,1
    50202658:	fcf42c23          	sw	a5,-40(s0)
    5020265c:	fd842783          	lw	a5,-40(s0)
    50202660:	0007871b          	sext.w	a4,a5
    50202664:	04f00793          	li	a5,79
    50202668:	eee7dce3          	bge	a5,a4,50202560 <screen_reflush+0x22>
    5020266c:	fdc42783          	lw	a5,-36(s0)
    50202670:	2785                	addiw	a5,a5,1
    50202672:	fcf42e23          	sw	a5,-36(s0)
    50202676:	fdc42783          	lw	a5,-36(s0)
    5020267a:	0007871b          	sext.w	a4,a5
    5020267e:	02700793          	li	a5,39
    50202682:	ece7dce3          	bge	a5,a4,5020255a <screen_reflush+0x1c>
    50202686:	b5ffe0ef          	jal	ra,502011e4 <get_current_cpu_id>
    5020268a:	87aa                	mv	a5,a0
    5020268c:	00007717          	auipc	a4,0x7
    50202690:	e6470713          	addi	a4,a4,-412 # 502094f0 <current_running>
    50202694:	078e                	slli	a5,a5,0x3
    50202696:	97ba                	add	a5,a5,a4
    50202698:	639c                	ld	a5,0(a5)
    5020269a:	1047a483          	lw	s1,260(a5)
    5020269e:	b47fe0ef          	jal	ra,502011e4 <get_current_cpu_id>
    502026a2:	87aa                	mv	a5,a0
    502026a4:	00007717          	auipc	a4,0x7
    502026a8:	e4c70713          	addi	a4,a4,-436 # 502094f0 <current_running>
    502026ac:	078e                	slli	a5,a5,0x3
    502026ae:	97ba                	add	a5,a5,a4
    502026b0:	639c                	ld	a5,0(a5)
    502026b2:	1087a783          	lw	a5,264(a5)
    502026b6:	85be                	mv	a1,a5
    502026b8:	8526                	mv	a0,s1
    502026ba:	b15ff0ef          	jal	ra,502021ce <vt100_move_cursor>
    502026be:	00007517          	auipc	a0,0x7
    502026c2:	e9250513          	addi	a0,a0,-366 # 50209550 <screen_lock>
    502026c6:	21d000ef          	jal	ra,502030e2 <spin_lock_release>
    502026ca:	0001                	nop
    502026cc:	70a2                	ld	ra,40(sp)
    502026ce:	7402                	ld	s0,32(sp)
    502026d0:	64e2                	ld	s1,24(sp)
    502026d2:	6145                	addi	sp,sp,48
    502026d4:	8082                	ret

00000000502026d6 <do_backspace>:
    502026d6:	1101                	addi	sp,sp,-32
    502026d8:	ec06                	sd	ra,24(sp)
    502026da:	e822                	sd	s0,16(sp)
    502026dc:	1000                	addi	s0,sp,32
    502026de:	b07fe0ef          	jal	ra,502011e4 <get_current_cpu_id>
    502026e2:	fea43423          	sd	a0,-24(s0)
    502026e6:	00007717          	auipc	a4,0x7
    502026ea:	e0a70713          	addi	a4,a4,-502 # 502094f0 <current_running>
    502026ee:	fe843783          	ld	a5,-24(s0)
    502026f2:	078e                	slli	a5,a5,0x3
    502026f4:	97ba                	add	a5,a5,a4
    502026f6:	639c                	ld	a5,0(a5)
    502026f8:	1047a703          	lw	a4,260(a5)
    502026fc:	377d                	addiw	a4,a4,-1
    502026fe:	2701                	sext.w	a4,a4
    50202700:	10e7a223          	sw	a4,260(a5)
    50202704:	02000513          	li	a0,32
    50202708:	b41ff0ef          	jal	ra,50202248 <screen_write_ch>
    5020270c:	e33ff0ef          	jal	ra,5020253e <screen_reflush>
    50202710:	00007717          	auipc	a4,0x7
    50202714:	de070713          	addi	a4,a4,-544 # 502094f0 <current_running>
    50202718:	fe843783          	ld	a5,-24(s0)
    5020271c:	078e                	slli	a5,a5,0x3
    5020271e:	97ba                	add	a5,a5,a4
    50202720:	639c                	ld	a5,0(a5)
    50202722:	1047a703          	lw	a4,260(a5)
    50202726:	377d                	addiw	a4,a4,-1
    50202728:	2701                	sext.w	a4,a4
    5020272a:	10e7a223          	sw	a4,260(a5)
    5020272e:	00007717          	auipc	a4,0x7
    50202732:	dc270713          	addi	a4,a4,-574 # 502094f0 <current_running>
    50202736:	fe843783          	ld	a5,-24(s0)
    5020273a:	078e                	slli	a5,a5,0x3
    5020273c:	97ba                	add	a5,a5,a4
    5020273e:	639c                	ld	a5,0(a5)
    50202740:	1047a683          	lw	a3,260(a5)
    50202744:	00007717          	auipc	a4,0x7
    50202748:	dac70713          	addi	a4,a4,-596 # 502094f0 <current_running>
    5020274c:	fe843783          	ld	a5,-24(s0)
    50202750:	078e                	slli	a5,a5,0x3
    50202752:	97ba                	add	a5,a5,a4
    50202754:	639c                	ld	a5,0(a5)
    50202756:	1087a783          	lw	a5,264(a5)
    5020275a:	85be                	mv	a1,a5
    5020275c:	8536                	mv	a0,a3
    5020275e:	a71ff0ef          	jal	ra,502021ce <vt100_move_cursor>
    50202762:	0001                	nop
    50202764:	60e2                	ld	ra,24(sp)
    50202766:	6442                	ld	s0,16(sp)
    50202768:	6105                	addi	sp,sp,32
    5020276a:	8082                	ret

000000005020276c <screen_scroll>:
    5020276c:	7179                	addi	sp,sp,-48
    5020276e:	f422                	sd	s0,40(sp)
    50202770:	1800                	addi	s0,sp,48
    50202772:	87aa                	mv	a5,a0
    50202774:	fcf42e23          	sw	a5,-36(s0)
    50202778:	fdc42783          	lw	a5,-36(s0)
    5020277c:	2785                	addiw	a5,a5,1
    5020277e:	fef42623          	sw	a5,-20(s0)
    50202782:	a051                	j	50202806 <screen_scroll+0x9a>
    50202784:	fe042423          	sw	zero,-24(s0)
    50202788:	a095                	j	502027ec <screen_scroll+0x80>
    5020278a:	fec42783          	lw	a5,-20(s0)
    5020278e:	2785                	addiw	a5,a5,1
    50202790:	2781                	sext.w	a5,a5
    50202792:	873e                	mv	a4,a5
    50202794:	87ba                	mv	a5,a4
    50202796:	0027979b          	slliw	a5,a5,0x2
    5020279a:	9fb9                	addw	a5,a5,a4
    5020279c:	0047979b          	slliw	a5,a5,0x4
    502027a0:	2781                	sext.w	a5,a5
    502027a2:	fe842703          	lw	a4,-24(s0)
    502027a6:	9fb9                	addw	a5,a5,a4
    502027a8:	0007869b          	sext.w	a3,a5
    502027ac:	fec42703          	lw	a4,-20(s0)
    502027b0:	87ba                	mv	a5,a4
    502027b2:	0027979b          	slliw	a5,a5,0x2
    502027b6:	9fb9                	addw	a5,a5,a4
    502027b8:	0047979b          	slliw	a5,a5,0x4
    502027bc:	2781                	sext.w	a5,a5
    502027be:	fe842703          	lw	a4,-24(s0)
    502027c2:	9fb9                	addw	a5,a5,a4
    502027c4:	2781                	sext.w	a5,a5
    502027c6:	00005717          	auipc	a4,0x5
    502027ca:	cfa70713          	addi	a4,a4,-774 # 502074c0 <new_screen>
    502027ce:	9736                	add	a4,a4,a3
    502027d0:	00074703          	lbu	a4,0(a4)
    502027d4:	00005697          	auipc	a3,0x5
    502027d8:	cec68693          	addi	a3,a3,-788 # 502074c0 <new_screen>
    502027dc:	97b6                	add	a5,a5,a3
    502027de:	00e78023          	sb	a4,0(a5)
    502027e2:	fe842783          	lw	a5,-24(s0)
    502027e6:	2785                	addiw	a5,a5,1
    502027e8:	fef42423          	sw	a5,-24(s0)
    502027ec:	fe842783          	lw	a5,-24(s0)
    502027f0:	0007871b          	sext.w	a4,a5
    502027f4:	04f00793          	li	a5,79
    502027f8:	f8e7d9e3          	bge	a5,a4,5020278a <screen_scroll+0x1e>
    502027fc:	fec42783          	lw	a5,-20(s0)
    50202800:	2785                	addiw	a5,a5,1
    50202802:	fef42623          	sw	a5,-20(s0)
    50202806:	fec42783          	lw	a5,-20(s0)
    5020280a:	0007871b          	sext.w	a4,a5
    5020280e:	02600793          	li	a5,38
    50202812:	f6e7d9e3          	bge	a5,a4,50202784 <screen_scroll+0x18>
    50202816:	fe042223          	sw	zero,-28(s0)
    5020281a:	a035                	j	50202846 <screen_scroll+0xda>
    5020281c:	fe442703          	lw	a4,-28(s0)
    50202820:	6785                	lui	a5,0x1
    50202822:	c307879b          	addiw	a5,a5,-976
    50202826:	9fb9                	addw	a5,a5,a4
    50202828:	2781                	sext.w	a5,a5
    5020282a:	00005717          	auipc	a4,0x5
    5020282e:	c9670713          	addi	a4,a4,-874 # 502074c0 <new_screen>
    50202832:	97ba                	add	a5,a5,a4
    50202834:	02000713          	li	a4,32
    50202838:	00e78023          	sb	a4,0(a5) # 1000 <TEXT_START-0x50200000>
    5020283c:	fe442783          	lw	a5,-28(s0)
    50202840:	2785                	addiw	a5,a5,1
    50202842:	fef42223          	sw	a5,-28(s0)
    50202846:	fe442783          	lw	a5,-28(s0)
    5020284a:	0007871b          	sext.w	a4,a5
    5020284e:	04f00793          	li	a5,79
    50202852:	fce7d5e3          	bge	a5,a4,5020281c <screen_scroll+0xb0>
    50202856:	0001                	nop
    50202858:	0001                	nop
    5020285a:	7422                	ld	s0,40(sp)
    5020285c:	6145                	addi	sp,sp,48
    5020285e:	8082                	ret

0000000050202860 <call_jmptab>:
    50202860:	715d                	addi	sp,sp,-80
    50202862:	e486                	sd	ra,72(sp)
    50202864:	e0a2                	sd	s0,64(sp)
    50202866:	0880                	addi	s0,sp,80
    50202868:	fca43c23          	sd	a0,-40(s0)
    5020286c:	fcb43823          	sd	a1,-48(s0)
    50202870:	fcc43423          	sd	a2,-56(s0)
    50202874:	fcd43023          	sd	a3,-64(s0)
    50202878:	fae43c23          	sd	a4,-72(s0)
    5020287c:	faf43823          	sd	a5,-80(s0)
    50202880:	fd843703          	ld	a4,-40(s0)
    50202884:	0a4007b7          	lui	a5,0xa400
    50202888:	1781                	addi	a5,a5,-32
    5020288a:	97ba                	add	a5,a5,a4
    5020288c:	078e                	slli	a5,a5,0x3
    5020288e:	639c                	ld	a5,0(a5)
    50202890:	fef43423          	sd	a5,-24(s0)
    50202894:	fe843783          	ld	a5,-24(s0)
    50202898:	fef43023          	sd	a5,-32(s0)
    5020289c:	fe043783          	ld	a5,-32(s0)
    502028a0:	fb043703          	ld	a4,-80(s0)
    502028a4:	fb843683          	ld	a3,-72(s0)
    502028a8:	fc043603          	ld	a2,-64(s0)
    502028ac:	fc843583          	ld	a1,-56(s0)
    502028b0:	fd043503          	ld	a0,-48(s0)
    502028b4:	9782                	jalr	a5
    502028b6:	87aa                	mv	a5,a0
    502028b8:	853e                	mv	a0,a5
    502028ba:	60a6                	ld	ra,72(sp)
    502028bc:	6406                	ld	s0,64(sp)
    502028be:	6161                	addi	sp,sp,80
    502028c0:	8082                	ret

00000000502028c2 <bios_set_timer>:
    502028c2:	1101                	addi	sp,sp,-32
    502028c4:	ec06                	sd	ra,24(sp)
    502028c6:	e822                	sd	s0,16(sp)
    502028c8:	1000                	addi	s0,sp,32
    502028ca:	fea43423          	sd	a0,-24(s0)
    502028ce:	fe843583          	ld	a1,-24(s0)
    502028d2:	4781                	li	a5,0
    502028d4:	4701                	li	a4,0
    502028d6:	4681                	li	a3,0
    502028d8:	4601                	li	a2,0
    502028da:	4519                	li	a0,6
    502028dc:	f85ff0ef          	jal	ra,50202860 <call_jmptab>
    502028e0:	0001                	nop
    502028e2:	60e2                	ld	ra,24(sp)
    502028e4:	6442                	ld	s0,16(sp)
    502028e6:	6105                	addi	sp,sp,32
    502028e8:	8082                	ret

00000000502028ea <_panic>:
    502028ea:	7179                	addi	sp,sp,-48
    502028ec:	f406                	sd	ra,40(sp)
    502028ee:	f022                	sd	s0,32(sp)
    502028f0:	1800                	addi	s0,sp,48
    502028f2:	fea43423          	sd	a0,-24(s0)
    502028f6:	87ae                	mv	a5,a1
    502028f8:	fcc43c23          	sd	a2,-40(s0)
    502028fc:	fef42223          	sw	a5,-28(s0)
    50202900:	fe442783          	lw	a5,-28(s0)
    50202904:	86be                	mv	a3,a5
    50202906:	fe843603          	ld	a2,-24(s0)
    5020290a:	fd843583          	ld	a1,-40(s0)
    5020290e:	00004517          	auipc	a0,0x4
    50202912:	4ca50513          	addi	a0,a0,1226 # 50206dd8 <strcat+0x39a>
    50202916:	517030ef          	jal	ra,5020662c <printk>
    5020291a:	a001                	j	5020291a <_panic+0x30>

000000005020291c <interrupt_helper>:
    5020291c:	7139                	addi	sp,sp,-64
    5020291e:	fc06                	sd	ra,56(sp)
    50202920:	f822                	sd	s0,48(sp)
    50202922:	0080                	addi	s0,sp,64
    50202924:	fca43c23          	sd	a0,-40(s0)
    50202928:	fcb43823          	sd	a1,-48(s0)
    5020292c:	fcc43423          	sd	a2,-56(s0)
    50202930:	8b5fe0ef          	jal	ra,502011e4 <get_current_cpu_id>
    50202934:	87aa                	mv	a5,a0
    50202936:	8712                	mv	a4,tp
    50202938:	00007697          	auipc	a3,0x7
    5020293c:	bb868693          	addi	a3,a3,-1096 # 502094f0 <current_running>
    50202940:	078e                	slli	a5,a5,0x3
    50202942:	97b6                	add	a5,a5,a3
    50202944:	e398                	sd	a4,0(a5)
    50202946:	fc843783          	ld	a5,-56(s0)
    5020294a:	0007d763          	bgez	a5,50202958 <interrupt_helper+0x3c>
    5020294e:	00007797          	auipc	a5,0x7
    50202952:	c8a78793          	addi	a5,a5,-886 # 502095d8 <irq_table>
    50202956:	a029                	j	50202960 <interrupt_helper+0x44>
    50202958:	00007797          	auipc	a5,0x7
    5020295c:	c0078793          	addi	a5,a5,-1024 # 50209558 <exc_table>
    50202960:	fef43423          	sd	a5,-24(s0)
    50202964:	fc843703          	ld	a4,-56(s0)
    50202968:	57fd                	li	a5,-1
    5020296a:	8385                	srli	a5,a5,0x1
    5020296c:	8ff9                	and	a5,a5,a4
    5020296e:	fcf43423          	sd	a5,-56(s0)
    50202972:	fc843783          	ld	a5,-56(s0)
    50202976:	078e                	slli	a5,a5,0x3
    50202978:	fe843703          	ld	a4,-24(s0)
    5020297c:	97ba                	add	a5,a5,a4
    5020297e:	639c                	ld	a5,0(a5)
    50202980:	fc843603          	ld	a2,-56(s0)
    50202984:	fd043583          	ld	a1,-48(s0)
    50202988:	fd843503          	ld	a0,-40(s0)
    5020298c:	9782                	jalr	a5
    5020298e:	0001                	nop
    50202990:	70e2                	ld	ra,56(sp)
    50202992:	7442                	ld	s0,48(sp)
    50202994:	6121                	addi	sp,sp,64
    50202996:	8082                	ret

0000000050202998 <handle_irq_timer>:
    50202998:	7179                	addi	sp,sp,-48
    5020299a:	f406                	sd	ra,40(sp)
    5020299c:	f022                	sd	s0,32(sp)
    5020299e:	1800                	addi	s0,sp,48
    502029a0:	fea43423          	sd	a0,-24(s0)
    502029a4:	feb43023          	sd	a1,-32(s0)
    502029a8:	fcc43c23          	sd	a2,-40(s0)
    502029ac:	27d010ef          	jal	ra,50204428 <get_ticks>
    502029b0:	872a                	mv	a4,a0
    502029b2:	000257b7          	lui	a5,0x25
    502029b6:	9f078793          	addi	a5,a5,-1552 # 249f0 <TEXT_START-0x501dc610>
    502029ba:	97ba                	add	a5,a5,a4
    502029bc:	853e                	mv	a0,a5
    502029be:	f05ff0ef          	jal	ra,502028c2 <bios_set_timer>
    502029c2:	4ab010ef          	jal	ra,5020466c <do_scheduler>
    502029c6:	0001                	nop
    502029c8:	70a2                	ld	ra,40(sp)
    502029ca:	7402                	ld	s0,32(sp)
    502029cc:	6145                	addi	sp,sp,48
    502029ce:	8082                	ret

00000000502029d0 <handle_ipi>:
    502029d0:	7179                	addi	sp,sp,-48
    502029d2:	f406                	sd	ra,40(sp)
    502029d4:	f022                	sd	s0,32(sp)
    502029d6:	1800                	addi	s0,sp,48
    502029d8:	fea43423          	sd	a0,-24(s0)
    502029dc:	feb43023          	sd	a1,-32(s0)
    502029e0:	fcc43c23          	sd	a2,-40(s0)
    502029e4:	801fe0ef          	jal	ra,502011e4 <get_current_cpu_id>
    502029e8:	87aa                	mv	a5,a0
    502029ea:	00007717          	auipc	a4,0x7
    502029ee:	b0670713          	addi	a4,a4,-1274 # 502094f0 <current_running>
    502029f2:	078e                	slli	a5,a5,0x3
    502029f4:	97ba                	add	a5,a5,a4
    502029f6:	639c                	ld	a5,0(a5)
    502029f8:	7ffc                	ld	a5,248(a5)
    502029fa:	85be                	mv	a1,a5
    502029fc:	00004517          	auipc	a0,0x4
    50202a00:	40450513          	addi	a0,a0,1028 # 50206e00 <strcat+0x3c2>
    50202a04:	429030ef          	jal	ra,5020662c <printk>
    50202a08:	00007797          	auipc	a5,0x7
    50202a0c:	ae878793          	addi	a5,a5,-1304 # 502094f0 <current_running>
    50202a10:	679c                	ld	a5,8(a5)
    50202a12:	cb81                	beqz	a5,50202a22 <handle_ipi+0x52>
    50202a14:	00007797          	auipc	a5,0x7
    50202a18:	adc78793          	addi	a5,a5,-1316 # 502094f0 <current_running>
    50202a1c:	679c                	ld	a5,8(a5)
    50202a1e:	7ffc                	ld	a5,248(a5)
    50202a20:	a029                	j	50202a2a <handle_ipi+0x5a>
    50202a22:	00004797          	auipc	a5,0x4
    50202a26:	41678793          	addi	a5,a5,1046 # 50206e38 <strcat+0x3fa>
    50202a2a:	85be                	mv	a1,a5
    50202a2c:	00004517          	auipc	a0,0x4
    50202a30:	41c50513          	addi	a0,a0,1052 # 50206e48 <strcat+0x40a>
    50202a34:	3f9030ef          	jal	ra,5020662c <printk>
    50202a38:	f84fe0ef          	jal	ra,502011bc <disable_IRQ_S_SOFT>
    50202a3c:	0001                	nop
    50202a3e:	70a2                	ld	ra,40(sp)
    50202a40:	7402                	ld	s0,32(sp)
    50202a42:	6145                	addi	sp,sp,48
    50202a44:	8082                	ret

0000000050202a46 <init_exception>:
    50202a46:	1101                	addi	sp,sp,-32
    50202a48:	ec06                	sd	ra,24(sp)
    50202a4a:	e822                	sd	s0,16(sp)
    50202a4c:	1000                	addi	s0,sp,32
    50202a4e:	fe042623          	sw	zero,-20(s0)
    50202a52:	a01d                	j	50202a78 <init_exception+0x32>
    50202a54:	00007717          	auipc	a4,0x7
    50202a58:	b0470713          	addi	a4,a4,-1276 # 50209558 <exc_table>
    50202a5c:	fec42783          	lw	a5,-20(s0)
    50202a60:	078e                	slli	a5,a5,0x3
    50202a62:	97ba                	add	a5,a5,a4
    50202a64:	00000717          	auipc	a4,0x0
    50202a68:	0b070713          	addi	a4,a4,176 # 50202b14 <handle_other>
    50202a6c:	e398                	sd	a4,0(a5)
    50202a6e:	fec42783          	lw	a5,-20(s0)
    50202a72:	2785                	addiw	a5,a5,1
    50202a74:	fef42623          	sw	a5,-20(s0)
    50202a78:	fec42783          	lw	a5,-20(s0)
    50202a7c:	0007871b          	sext.w	a4,a5
    50202a80:	47bd                	li	a5,15
    50202a82:	fce7d9e3          	bge	a5,a4,50202a54 <init_exception+0xe>
    50202a86:	00007797          	auipc	a5,0x7
    50202a8a:	ad278793          	addi	a5,a5,-1326 # 50209558 <exc_table>
    50202a8e:	00003717          	auipc	a4,0x3
    50202a92:	30870713          	addi	a4,a4,776 # 50205d96 <handle_syscall>
    50202a96:	e3b8                	sd	a4,64(a5)
    50202a98:	fe042423          	sw	zero,-24(s0)
    50202a9c:	a01d                	j	50202ac2 <init_exception+0x7c>
    50202a9e:	00007717          	auipc	a4,0x7
    50202aa2:	b3a70713          	addi	a4,a4,-1222 # 502095d8 <irq_table>
    50202aa6:	fe842783          	lw	a5,-24(s0)
    50202aaa:	078e                	slli	a5,a5,0x3
    50202aac:	97ba                	add	a5,a5,a4
    50202aae:	00000717          	auipc	a4,0x0
    50202ab2:	06670713          	addi	a4,a4,102 # 50202b14 <handle_other>
    50202ab6:	e398                	sd	a4,0(a5)
    50202ab8:	fe842783          	lw	a5,-24(s0)
    50202abc:	2785                	addiw	a5,a5,1
    50202abe:	fef42423          	sw	a5,-24(s0)
    50202ac2:	fe842783          	lw	a5,-24(s0)
    50202ac6:	0007871b          	sext.w	a4,a5
    50202aca:	47ad                	li	a5,11
    50202acc:	fce7d9e3          	bge	a5,a4,50202a9e <init_exception+0x58>
    50202ad0:	00007797          	auipc	a5,0x7
    50202ad4:	b0878793          	addi	a5,a5,-1272 # 502095d8 <irq_table>
    50202ad8:	00000717          	auipc	a4,0x0
    50202adc:	ef870713          	addi	a4,a4,-264 # 502029d0 <handle_ipi>
    50202ae0:	e798                	sd	a4,8(a5)
    50202ae2:	00007797          	auipc	a5,0x7
    50202ae6:	af678793          	addi	a5,a5,-1290 # 502095d8 <irq_table>
    50202aea:	00000717          	auipc	a4,0x0
    50202aee:	eae70713          	addi	a4,a4,-338 # 50202998 <handle_irq_timer>
    50202af2:	f798                	sd	a4,40(a5)
    50202af4:	00007797          	auipc	a5,0x7
    50202af8:	ae478793          	addi	a5,a5,-1308 # 502095d8 <irq_table>
    50202afc:	00000717          	auipc	a4,0x0
    50202b00:	e9c70713          	addi	a4,a4,-356 # 50202998 <handle_irq_timer>
    50202b04:	ff98                	sd	a4,56(a5)
    50202b06:	ebefe0ef          	jal	ra,502011c4 <setup_exception>
    50202b0a:	0001                	nop
    50202b0c:	60e2                	ld	ra,24(sp)
    50202b0e:	6442                	ld	s0,16(sp)
    50202b10:	6105                	addi	sp,sp,32
    50202b12:	8082                	ret

0000000050202b14 <handle_other>:
    50202b14:	7129                	addi	sp,sp,-320
    50202b16:	fe06                	sd	ra,312(sp)
    50202b18:	fa22                	sd	s0,304(sp)
    50202b1a:	0280                	addi	s0,sp,320
    50202b1c:	eca43c23          	sd	a0,-296(s0)
    50202b20:	ecb43823          	sd	a1,-304(s0)
    50202b24:	ecc43423          	sd	a2,-312(s0)
    50202b28:	00004717          	auipc	a4,0x4
    50202b2c:	3c070713          	addi	a4,a4,960 # 50206ee8 <strcat+0x4aa>
    50202b30:	ee840793          	addi	a5,s0,-280
    50202b34:	86ba                	mv	a3,a4
    50202b36:	10000713          	li	a4,256
    50202b3a:	863a                	mv	a2,a4
    50202b3c:	85b6                	mv	a1,a3
    50202b3e:	853e                	mv	a0,a5
    50202b40:	405030ef          	jal	ra,50206744 <memcpy>
    50202b44:	fe042623          	sw	zero,-20(s0)
    50202b48:	a061                	j	50202bd0 <handle_other+0xbc>
    50202b4a:	fe042423          	sw	zero,-24(s0)
    50202b4e:	a0a9                	j	50202b98 <handle_other+0x84>
    50202b50:	fec42703          	lw	a4,-20(s0)
    50202b54:	fe842783          	lw	a5,-24(s0)
    50202b58:	9fb9                	addw	a5,a5,a4
    50202b5a:	2781                	sext.w	a5,a5
    50202b5c:	078e                	slli	a5,a5,0x3
    50202b5e:	ff040713          	addi	a4,s0,-16
    50202b62:	97ba                	add	a5,a5,a4
    50202b64:	ef87b683          	ld	a3,-264(a5)
    50202b68:	fec42703          	lw	a4,-20(s0)
    50202b6c:	fe842783          	lw	a5,-24(s0)
    50202b70:	9fb9                	addw	a5,a5,a4
    50202b72:	2781                	sext.w	a5,a5
    50202b74:	ed843703          	ld	a4,-296(s0)
    50202b78:	078e                	slli	a5,a5,0x3
    50202b7a:	97ba                	add	a5,a5,a4
    50202b7c:	639c                	ld	a5,0(a5)
    50202b7e:	863e                	mv	a2,a5
    50202b80:	85b6                	mv	a1,a3
    50202b82:	00004517          	auipc	a0,0x4
    50202b86:	2d650513          	addi	a0,a0,726 # 50206e58 <strcat+0x41a>
    50202b8a:	2a3030ef          	jal	ra,5020662c <printk>
    50202b8e:	fe842783          	lw	a5,-24(s0)
    50202b92:	2785                	addiw	a5,a5,1
    50202b94:	fef42423          	sw	a5,-24(s0)
    50202b98:	fe842783          	lw	a5,-24(s0)
    50202b9c:	0007871b          	sext.w	a4,a5
    50202ba0:	4789                	li	a5,2
    50202ba2:	00e7cc63          	blt	a5,a4,50202bba <handle_other+0xa6>
    50202ba6:	fec42703          	lw	a4,-20(s0)
    50202baa:	fe842783          	lw	a5,-24(s0)
    50202bae:	9fb9                	addw	a5,a5,a4
    50202bb0:	2781                	sext.w	a5,a5
    50202bb2:	873e                	mv	a4,a5
    50202bb4:	47fd                	li	a5,31
    50202bb6:	f8e7dde3          	bge	a5,a4,50202b50 <handle_other+0x3c>
    50202bba:	00004517          	auipc	a0,0x4
    50202bbe:	2ae50513          	addi	a0,a0,686 # 50206e68 <strcat+0x42a>
    50202bc2:	26b030ef          	jal	ra,5020662c <printk>
    50202bc6:	fec42783          	lw	a5,-20(s0)
    50202bca:	278d                	addiw	a5,a5,3
    50202bcc:	fef42623          	sw	a5,-20(s0)
    50202bd0:	fec42783          	lw	a5,-20(s0)
    50202bd4:	0007871b          	sext.w	a4,a5
    50202bd8:	47fd                	li	a5,31
    50202bda:	f6e7d8e3          	bge	a5,a4,50202b4a <handle_other+0x36>
    50202bde:	ed843783          	ld	a5,-296(s0)
    50202be2:	1007b703          	ld	a4,256(a5)
    50202be6:	ed843783          	ld	a5,-296(s0)
    50202bea:	1107b603          	ld	a2,272(a5)
    50202bee:	ed843783          	ld	a5,-296(s0)
    50202bf2:	1187b783          	ld	a5,280(a5)
    50202bf6:	86be                	mv	a3,a5
    50202bf8:	85ba                	mv	a1,a4
    50202bfa:	00004517          	auipc	a0,0x4
    50202bfe:	27650513          	addi	a0,a0,630 # 50206e70 <strcat+0x432>
    50202c02:	22b030ef          	jal	ra,5020662c <printk>
    50202c06:	ed843783          	ld	a5,-296(s0)
    50202c0a:	1087b783          	ld	a5,264(a5)
    50202c0e:	85be                	mv	a1,a5
    50202c10:	00004517          	auipc	a0,0x4
    50202c14:	29050513          	addi	a0,a0,656 # 50206ea0 <strcat+0x462>
    50202c18:	215030ef          	jal	ra,5020662c <printk>
    50202c1c:	ec843603          	ld	a2,-312(s0)
    50202c20:	ed043583          	ld	a1,-304(s0)
    50202c24:	00004517          	auipc	a0,0x4
    50202c28:	28c50513          	addi	a0,a0,652 # 50206eb0 <strcat+0x472>
    50202c2c:	201030ef          	jal	ra,5020662c <printk>
    50202c30:	00004617          	auipc	a2,0x4
    50202c34:	3b860613          	addi	a2,a2,952 # 50206fe8 <__FUNCTION__.1484>
    50202c38:	05b00593          	li	a1,91
    50202c3c:	00004517          	auipc	a0,0x4
    50202c40:	29450513          	addi	a0,a0,660 # 50206ed0 <strcat+0x492>
    50202c44:	ca7ff0ef          	jal	ra,502028ea <_panic>
    50202c48:	0001                	nop
    50202c4a:	70f2                	ld	ra,312(sp)
    50202c4c:	7452                	ld	s0,304(sp)
    50202c4e:	6131                	addi	sp,sp,320
    50202c50:	8082                	ret

0000000050202c52 <call_jmptab>:
    50202c52:	715d                	addi	sp,sp,-80
    50202c54:	e486                	sd	ra,72(sp)
    50202c56:	e0a2                	sd	s0,64(sp)
    50202c58:	0880                	addi	s0,sp,80
    50202c5a:	fca43c23          	sd	a0,-40(s0)
    50202c5e:	fcb43823          	sd	a1,-48(s0)
    50202c62:	fcc43423          	sd	a2,-56(s0)
    50202c66:	fcd43023          	sd	a3,-64(s0)
    50202c6a:	fae43c23          	sd	a4,-72(s0)
    50202c6e:	faf43823          	sd	a5,-80(s0)
    50202c72:	fd843703          	ld	a4,-40(s0)
    50202c76:	0a4007b7          	lui	a5,0xa400
    50202c7a:	1781                	addi	a5,a5,-32
    50202c7c:	97ba                	add	a5,a5,a4
    50202c7e:	078e                	slli	a5,a5,0x3
    50202c80:	639c                	ld	a5,0(a5)
    50202c82:	fef43423          	sd	a5,-24(s0)
    50202c86:	fe843783          	ld	a5,-24(s0)
    50202c8a:	fef43023          	sd	a5,-32(s0)
    50202c8e:	fe043783          	ld	a5,-32(s0)
    50202c92:	fb043703          	ld	a4,-80(s0)
    50202c96:	fb843683          	ld	a3,-72(s0)
    50202c9a:	fc043603          	ld	a2,-64(s0)
    50202c9e:	fc843583          	ld	a1,-56(s0)
    50202ca2:	fd043503          	ld	a0,-48(s0)
    50202ca6:	9782                	jalr	a5
    50202ca8:	87aa                	mv	a5,a0
    50202caa:	853e                	mv	a0,a5
    50202cac:	60a6                	ld	ra,72(sp)
    50202cae:	6406                	ld	s0,64(sp)
    50202cb0:	6161                	addi	sp,sp,80
    50202cb2:	8082                	ret

0000000050202cb4 <bios_sd_read>:
    50202cb4:	1101                	addi	sp,sp,-32
    50202cb6:	ec06                	sd	ra,24(sp)
    50202cb8:	e822                	sd	s0,16(sp)
    50202cba:	1000                	addi	s0,sp,32
    50202cbc:	87aa                	mv	a5,a0
    50202cbe:	86ae                	mv	a3,a1
    50202cc0:	8732                	mv	a4,a2
    50202cc2:	fef42623          	sw	a5,-20(s0)
    50202cc6:	87b6                	mv	a5,a3
    50202cc8:	fef42423          	sw	a5,-24(s0)
    50202ccc:	87ba                	mv	a5,a4
    50202cce:	fef42223          	sw	a5,-28(s0)
    50202cd2:	fec46583          	lwu	a1,-20(s0)
    50202cd6:	fe846603          	lwu	a2,-24(s0)
    50202cda:	fe446683          	lwu	a3,-28(s0)
    50202cde:	4781                	li	a5,0
    50202ce0:	4701                	li	a4,0
    50202ce2:	450d                	li	a0,3
    50202ce4:	f6fff0ef          	jal	ra,50202c52 <call_jmptab>
    50202ce8:	87aa                	mv	a5,a0
    50202cea:	2781                	sext.w	a5,a5
    50202cec:	853e                	mv	a0,a5
    50202cee:	60e2                	ld	ra,24(sp)
    50202cf0:	6442                	ld	s0,16(sp)
    50202cf2:	6105                	addi	sp,sp,32
    50202cf4:	8082                	ret

0000000050202cf6 <load_task_img>:
    50202cf6:	7179                	addi	sp,sp,-48
    50202cf8:	f406                	sd	ra,40(sp)
    50202cfa:	f022                	sd	s0,32(sp)
    50202cfc:	1800                	addi	s0,sp,48
    50202cfe:	87aa                	mv	a5,a0
    50202d00:	fcf42e23          	sw	a5,-36(s0)
    50202d04:	00006697          	auipc	a3,0x6
    50202d08:	0cc68693          	addi	a3,a3,204 # 50208dd0 <tasks>
    50202d0c:	fdc42703          	lw	a4,-36(s0)
    50202d10:	87ba                	mv	a5,a4
    50202d12:	0786                	slli	a5,a5,0x1
    50202d14:	97ba                	add	a5,a5,a4
    50202d16:	0792                	slli	a5,a5,0x4
    50202d18:	97b6                	add	a5,a5,a3
    50202d1a:	53dc                	lw	a5,36(a5)
    50202d1c:	873e                	mv	a4,a5
    50202d1e:	41f7579b          	sraiw	a5,a4,0x1f
    50202d22:	0177d79b          	srliw	a5,a5,0x17
    50202d26:	9f3d                	addw	a4,a4,a5
    50202d28:	1ff77713          	andi	a4,a4,511
    50202d2c:	40f707bb          	subw	a5,a4,a5
    50202d30:	0007869b          	sext.w	a3,a5
    50202d34:	00006617          	auipc	a2,0x6
    50202d38:	09c60613          	addi	a2,a2,156 # 50208dd0 <tasks>
    50202d3c:	fdc42703          	lw	a4,-36(s0)
    50202d40:	87ba                	mv	a5,a4
    50202d42:	0786                	slli	a5,a5,0x1
    50202d44:	97ba                	add	a5,a5,a4
    50202d46:	0792                	slli	a5,a5,0x4
    50202d48:	97b2                	add	a5,a5,a2
    50202d4a:	539c                	lw	a5,32(a5)
    50202d4c:	9fb5                	addw	a5,a5,a3
    50202d4e:	2781                	sext.w	a5,a5
    50202d50:	41f7d71b          	sraiw	a4,a5,0x1f
    50202d54:	0177571b          	srliw	a4,a4,0x17
    50202d58:	9fb9                	addw	a5,a5,a4
    50202d5a:	4097d79b          	sraiw	a5,a5,0x9
    50202d5e:	0007869b          	sext.w	a3,a5
    50202d62:	00006617          	auipc	a2,0x6
    50202d66:	06e60613          	addi	a2,a2,110 # 50208dd0 <tasks>
    50202d6a:	fdc42703          	lw	a4,-36(s0)
    50202d6e:	87ba                	mv	a5,a4
    50202d70:	0786                	slli	a5,a5,0x1
    50202d72:	97ba                	add	a5,a5,a4
    50202d74:	0792                	slli	a5,a5,0x4
    50202d76:	97b2                	add	a5,a5,a2
    50202d78:	53dc                	lw	a5,36(a5)
    50202d7a:	873e                	mv	a4,a5
    50202d7c:	41f7579b          	sraiw	a5,a4,0x1f
    50202d80:	0177d79b          	srliw	a5,a5,0x17
    50202d84:	9f3d                	addw	a4,a4,a5
    50202d86:	1ff77713          	andi	a4,a4,511
    50202d8a:	40f707bb          	subw	a5,a4,a5
    50202d8e:	0007861b          	sext.w	a2,a5
    50202d92:	00006597          	auipc	a1,0x6
    50202d96:	03e58593          	addi	a1,a1,62 # 50208dd0 <tasks>
    50202d9a:	fdc42703          	lw	a4,-36(s0)
    50202d9e:	87ba                	mv	a5,a4
    50202da0:	0786                	slli	a5,a5,0x1
    50202da2:	97ba                	add	a5,a5,a4
    50202da4:	0792                	slli	a5,a5,0x4
    50202da6:	97ae                	add	a5,a5,a1
    50202da8:	539c                	lw	a5,32(a5)
    50202daa:	9fb1                	addw	a5,a5,a2
    50202dac:	2781                	sext.w	a5,a5
    50202dae:	2781                	sext.w	a5,a5
    50202db0:	1ff7f793          	andi	a5,a5,511
    50202db4:	2781                	sext.w	a5,a5
    50202db6:	00f037b3          	snez	a5,a5
    50202dba:	0ff7f793          	andi	a5,a5,255
    50202dbe:	2781                	sext.w	a5,a5
    50202dc0:	9fb5                	addw	a5,a5,a3
    50202dc2:	fef42623          	sw	a5,-20(s0)
    50202dc6:	00006697          	auipc	a3,0x6
    50202dca:	00a68693          	addi	a3,a3,10 # 50208dd0 <tasks>
    50202dce:	fdc42703          	lw	a4,-36(s0)
    50202dd2:	87ba                	mv	a5,a4
    50202dd4:	0786                	slli	a5,a5,0x1
    50202dd6:	97ba                	add	a5,a5,a4
    50202dd8:	0792                	slli	a5,a5,0x4
    50202dda:	97b6                	add	a5,a5,a3
    50202ddc:	53dc                	lw	a5,36(a5)
    50202dde:	41f7d71b          	sraiw	a4,a5,0x1f
    50202de2:	0177571b          	srliw	a4,a4,0x17
    50202de6:	9fb9                	addw	a5,a5,a4
    50202de8:	4097d79b          	sraiw	a5,a5,0x9
    50202dec:	fef42423          	sw	a5,-24(s0)
    50202df0:	00006697          	auipc	a3,0x6
    50202df4:	fe068693          	addi	a3,a3,-32 # 50208dd0 <tasks>
    50202df8:	fdc42703          	lw	a4,-36(s0)
    50202dfc:	87ba                	mv	a5,a4
    50202dfe:	0786                	slli	a5,a5,0x1
    50202e00:	97ba                	add	a5,a5,a4
    50202e02:	0792                	slli	a5,a5,0x4
    50202e04:	97b6                	add	a5,a5,a3
    50202e06:	779c                	ld	a5,40(a5)
    50202e08:	fef43023          	sd	a5,-32(s0)
    50202e0c:	fe043783          	ld	a5,-32(s0)
    50202e10:	2781                	sext.w	a5,a5
    50202e12:	fec42703          	lw	a4,-20(s0)
    50202e16:	fe842683          	lw	a3,-24(s0)
    50202e1a:	8636                	mv	a2,a3
    50202e1c:	85ba                	mv	a1,a4
    50202e1e:	853e                	mv	a0,a5
    50202e20:	e95ff0ef          	jal	ra,50202cb4 <bios_sd_read>
    50202e24:	fe043503          	ld	a0,-32(s0)
    50202e28:	00006697          	auipc	a3,0x6
    50202e2c:	fa868693          	addi	a3,a3,-88 # 50208dd0 <tasks>
    50202e30:	fdc42703          	lw	a4,-36(s0)
    50202e34:	87ba                	mv	a5,a4
    50202e36:	0786                	slli	a5,a5,0x1
    50202e38:	97ba                	add	a5,a5,a4
    50202e3a:	0792                	slli	a5,a5,0x4
    50202e3c:	97b6                	add	a5,a5,a3
    50202e3e:	53dc                	lw	a5,36(a5)
    50202e40:	873e                	mv	a4,a5
    50202e42:	41f7579b          	sraiw	a5,a4,0x1f
    50202e46:	0177d79b          	srliw	a5,a5,0x17
    50202e4a:	9f3d                	addw	a4,a4,a5
    50202e4c:	1ff77713          	andi	a4,a4,511
    50202e50:	40f707bb          	subw	a5,a4,a5
    50202e54:	2781                	sext.w	a5,a5
    50202e56:	873e                	mv	a4,a5
    50202e58:	fe043783          	ld	a5,-32(s0)
    50202e5c:	97ba                	add	a5,a5,a4
    50202e5e:	85be                	mv	a1,a5
    50202e60:	00006697          	auipc	a3,0x6
    50202e64:	f7068693          	addi	a3,a3,-144 # 50208dd0 <tasks>
    50202e68:	fdc42703          	lw	a4,-36(s0)
    50202e6c:	87ba                	mv	a5,a4
    50202e6e:	0786                	slli	a5,a5,0x1
    50202e70:	97ba                	add	a5,a5,a4
    50202e72:	0792                	slli	a5,a5,0x4
    50202e74:	97b6                	add	a5,a5,a3
    50202e76:	539c                	lw	a5,32(a5)
    50202e78:	2781                	sext.w	a5,a5
    50202e7a:	863e                	mv	a2,a5
    50202e7c:	0c9030ef          	jal	ra,50206744 <memcpy>
    50202e80:	fe043783          	ld	a5,-32(s0)
    50202e84:	853e                	mv	a0,a5
    50202e86:	70a2                	ld	ra,40(sp)
    50202e88:	7402                	ld	s0,32(sp)
    50202e8a:	6145                	addi	sp,sp,48
    50202e8c:	8082                	ret

0000000050202e8e <allocKernelPage>:
    50202e8e:	7179                	addi	sp,sp,-48
    50202e90:	f422                	sd	s0,40(sp)
    50202e92:	1800                	addi	s0,sp,48
    50202e94:	87aa                	mv	a5,a0
    50202e96:	fcf42e23          	sw	a5,-36(s0)
    50202e9a:	00004797          	auipc	a5,0x4
    50202e9e:	5ee78793          	addi	a5,a5,1518 # 50207488 <kernMemCurr>
    50202ea2:	6398                	ld	a4,0(a5)
    50202ea4:	6785                	lui	a5,0x1
    50202ea6:	17fd                	addi	a5,a5,-1
    50202ea8:	973e                	add	a4,a4,a5
    50202eaa:	77fd                	lui	a5,0xfffff
    50202eac:	8ff9                	and	a5,a5,a4
    50202eae:	fef43423          	sd	a5,-24(s0)
    50202eb2:	fdc42783          	lw	a5,-36(s0)
    50202eb6:	00c7979b          	slliw	a5,a5,0xc
    50202eba:	2781                	sext.w	a5,a5
    50202ebc:	873e                	mv	a4,a5
    50202ebe:	fe843783          	ld	a5,-24(s0)
    50202ec2:	973e                	add	a4,a4,a5
    50202ec4:	00004797          	auipc	a5,0x4
    50202ec8:	5c478793          	addi	a5,a5,1476 # 50207488 <kernMemCurr>
    50202ecc:	e398                	sd	a4,0(a5)
    50202ece:	fe843783          	ld	a5,-24(s0)
    50202ed2:	853e                	mv	a0,a5
    50202ed4:	7422                	ld	s0,40(sp)
    50202ed6:	6145                	addi	sp,sp,48
    50202ed8:	8082                	ret

0000000050202eda <allocUserPage>:
    50202eda:	7179                	addi	sp,sp,-48
    50202edc:	f422                	sd	s0,40(sp)
    50202ede:	1800                	addi	s0,sp,48
    50202ee0:	87aa                	mv	a5,a0
    50202ee2:	fcf42e23          	sw	a5,-36(s0)
    50202ee6:	00004797          	auipc	a5,0x4
    50202eea:	5aa78793          	addi	a5,a5,1450 # 50207490 <userMemCurr>
    50202eee:	6398                	ld	a4,0(a5)
    50202ef0:	6785                	lui	a5,0x1
    50202ef2:	17fd                	addi	a5,a5,-1
    50202ef4:	973e                	add	a4,a4,a5
    50202ef6:	77fd                	lui	a5,0xfffff
    50202ef8:	8ff9                	and	a5,a5,a4
    50202efa:	fef43423          	sd	a5,-24(s0)
    50202efe:	fdc42783          	lw	a5,-36(s0)
    50202f02:	00c7979b          	slliw	a5,a5,0xc
    50202f06:	2781                	sext.w	a5,a5
    50202f08:	873e                	mv	a4,a5
    50202f0a:	fe843783          	ld	a5,-24(s0)
    50202f0e:	973e                	add	a4,a4,a5
    50202f10:	00004797          	auipc	a5,0x4
    50202f14:	58078793          	addi	a5,a5,1408 # 50207490 <userMemCurr>
    50202f18:	e398                	sd	a4,0(a5)
    50202f1a:	fe843783          	ld	a5,-24(s0)
    50202f1e:	853e                	mv	a0,a5
    50202f20:	7422                	ld	s0,40(sp)
    50202f22:	6145                	addi	sp,sp,48
    50202f24:	8082                	ret

0000000050202f26 <list_is_empty>:
    50202f26:	1101                	addi	sp,sp,-32
    50202f28:	ec22                	sd	s0,24(sp)
    50202f2a:	1000                	addi	s0,sp,32
    50202f2c:	fea43423          	sd	a0,-24(s0)
    50202f30:	fe843783          	ld	a5,-24(s0)
    50202f34:	639c                	ld	a5,0(a5)
    50202f36:	fe843703          	ld	a4,-24(s0)
    50202f3a:	40f707b3          	sub	a5,a4,a5
    50202f3e:	0017b793          	seqz	a5,a5
    50202f42:	0ff7f793          	andi	a5,a5,255
    50202f46:	2781                	sext.w	a5,a5
    50202f48:	853e                	mv	a0,a5
    50202f4a:	6462                	ld	s0,24(sp)
    50202f4c:	6105                	addi	sp,sp,32
    50202f4e:	8082                	ret

0000000050202f50 <list_init>:
    50202f50:	1101                	addi	sp,sp,-32
    50202f52:	ec22                	sd	s0,24(sp)
    50202f54:	1000                	addi	s0,sp,32
    50202f56:	fea43423          	sd	a0,-24(s0)
    50202f5a:	fe843783          	ld	a5,-24(s0)
    50202f5e:	fe843703          	ld	a4,-24(s0)
    50202f62:	e398                	sd	a4,0(a5)
    50202f64:	fe843783          	ld	a5,-24(s0)
    50202f68:	fe843703          	ld	a4,-24(s0)
    50202f6c:	e798                	sd	a4,8(a5)
    50202f6e:	0001                	nop
    50202f70:	6462                	ld	s0,24(sp)
    50202f72:	6105                	addi	sp,sp,32
    50202f74:	8082                	ret

0000000050202f76 <_panic>:
    50202f76:	7179                	addi	sp,sp,-48
    50202f78:	f406                	sd	ra,40(sp)
    50202f7a:	f022                	sd	s0,32(sp)
    50202f7c:	1800                	addi	s0,sp,48
    50202f7e:	fea43423          	sd	a0,-24(s0)
    50202f82:	87ae                	mv	a5,a1
    50202f84:	fcc43c23          	sd	a2,-40(s0)
    50202f88:	fef42223          	sw	a5,-28(s0)
    50202f8c:	fe442783          	lw	a5,-28(s0)
    50202f90:	86be                	mv	a3,a5
    50202f92:	fe843603          	ld	a2,-24(s0)
    50202f96:	fd843583          	ld	a1,-40(s0)
    50202f9a:	00004517          	auipc	a0,0x4
    50202f9e:	05e50513          	addi	a0,a0,94 # 50206ff8 <__FUNCTION__.1484+0x10>
    50202fa2:	68a030ef          	jal	ra,5020662c <printk>
    50202fa6:	a001                	j	50202fa6 <_panic+0x30>

0000000050202fa8 <atomic_swap>:
    50202fa8:	7179                	addi	sp,sp,-48
    50202faa:	f422                	sd	s0,40(sp)
    50202fac:	1800                	addi	s0,sp,48
    50202fae:	87aa                	mv	a5,a0
    50202fb0:	fcb43823          	sd	a1,-48(s0)
    50202fb4:	fcf42e23          	sw	a5,-36(s0)
    50202fb8:	fd043783          	ld	a5,-48(s0)
    50202fbc:	fdc42703          	lw	a4,-36(s0)
    50202fc0:	0ee7a72f          	amoswap.w.aqrl	a4,a4,(a5)
    50202fc4:	fee42623          	sw	a4,-20(s0)
    50202fc8:	fec42783          	lw	a5,-20(s0)
    50202fcc:	853e                	mv	a0,a5
    50202fce:	7422                	ld	s0,40(sp)
    50202fd0:	6145                	addi	sp,sp,48
    50202fd2:	8082                	ret

0000000050202fd4 <init_locks>:
    50202fd4:	1101                	addi	sp,sp,-32
    50202fd6:	ec06                	sd	ra,24(sp)
    50202fd8:	e822                	sd	s0,16(sp)
    50202fda:	1000                	addi	s0,sp,32
    50202fdc:	fe042623          	sw	zero,-20(s0)
    50202fe0:	a099                	j	50203026 <init_locks+0x52>
    50202fe2:	00007697          	auipc	a3,0x7
    50202fe6:	ed668693          	addi	a3,a3,-298 # 50209eb8 <mlocks>
    50202fea:	fec42703          	lw	a4,-20(s0)
    50202fee:	87ba                	mv	a5,a4
    50202ff0:	078a                	slli	a5,a5,0x2
    50202ff2:	97ba                	add	a5,a5,a4
    50202ff4:	078e                	slli	a5,a5,0x3
    50202ff6:	97b6                	add	a5,a5,a3
    50202ff8:	0007a023          	sw	zero,0(a5)
    50202ffc:	fec42703          	lw	a4,-20(s0)
    50203000:	87ba                	mv	a5,a4
    50203002:	078a                	slli	a5,a5,0x2
    50203004:	97ba                	add	a5,a5,a4
    50203006:	078e                	slli	a5,a5,0x3
    50203008:	01078713          	addi	a4,a5,16
    5020300c:	00007797          	auipc	a5,0x7
    50203010:	eac78793          	addi	a5,a5,-340 # 50209eb8 <mlocks>
    50203014:	97ba                	add	a5,a5,a4
    50203016:	853e                	mv	a0,a5
    50203018:	f39ff0ef          	jal	ra,50202f50 <list_init>
    5020301c:	fec42783          	lw	a5,-20(s0)
    50203020:	2785                	addiw	a5,a5,1
    50203022:	fef42623          	sw	a5,-20(s0)
    50203026:	fec42783          	lw	a5,-20(s0)
    5020302a:	0007871b          	sext.w	a4,a5
    5020302e:	47bd                	li	a5,15
    50203030:	fae7d9e3          	bge	a5,a4,50202fe2 <init_locks+0xe>
    50203034:	0001                	nop
    50203036:	0001                	nop
    50203038:	60e2                	ld	ra,24(sp)
    5020303a:	6442                	ld	s0,16(sp)
    5020303c:	6105                	addi	sp,sp,32
    5020303e:	8082                	ret

0000000050203040 <spin_lock_init>:
    50203040:	1101                	addi	sp,sp,-32
    50203042:	ec06                	sd	ra,24(sp)
    50203044:	e822                	sd	s0,16(sp)
    50203046:	1000                	addi	s0,sp,32
    50203048:	fea43423          	sd	a0,-24(s0)
    5020304c:	fe843783          	ld	a5,-24(s0)
    50203050:	85be                	mv	a1,a5
    50203052:	4501                	li	a0,0
    50203054:	f55ff0ef          	jal	ra,50202fa8 <atomic_swap>
    50203058:	fe843783          	ld	a5,-24(s0)
    5020305c:	577d                	li	a4,-1
    5020305e:	c3d8                	sw	a4,4(a5)
    50203060:	0001                	nop
    50203062:	60e2                	ld	ra,24(sp)
    50203064:	6442                	ld	s0,16(sp)
    50203066:	6105                	addi	sp,sp,32
    50203068:	8082                	ret

000000005020306a <spin_lock_try_acquire>:
    5020306a:	1101                	addi	sp,sp,-32
    5020306c:	ec06                	sd	ra,24(sp)
    5020306e:	e822                	sd	s0,16(sp)
    50203070:	1000                	addi	s0,sp,32
    50203072:	fea43423          	sd	a0,-24(s0)
    50203076:	fe843783          	ld	a5,-24(s0)
    5020307a:	85be                	mv	a1,a5
    5020307c:	4505                	li	a0,1
    5020307e:	f2bff0ef          	jal	ra,50202fa8 <atomic_swap>
    50203082:	87aa                	mv	a5,a0
    50203084:	2781                	sext.w	a5,a5
    50203086:	c399                	beqz	a5,5020308c <spin_lock_try_acquire+0x22>
    50203088:	4781                	li	a5,0
    5020308a:	a811                	j	5020309e <spin_lock_try_acquire+0x34>
    5020308c:	958fe0ef          	jal	ra,502011e4 <get_current_cpu_id>
    50203090:	87aa                	mv	a5,a0
    50203092:	0007871b          	sext.w	a4,a5
    50203096:	fe843783          	ld	a5,-24(s0)
    5020309a:	c3d8                	sw	a4,4(a5)
    5020309c:	4785                	li	a5,1
    5020309e:	853e                	mv	a0,a5
    502030a0:	60e2                	ld	ra,24(sp)
    502030a2:	6442                	ld	s0,16(sp)
    502030a4:	6105                	addi	sp,sp,32
    502030a6:	8082                	ret

00000000502030a8 <spin_lock_acquire>:
    502030a8:	1101                	addi	sp,sp,-32
    502030aa:	ec06                	sd	ra,24(sp)
    502030ac:	e822                	sd	s0,16(sp)
    502030ae:	1000                	addi	s0,sp,32
    502030b0:	fea43423          	sd	a0,-24(s0)
    502030b4:	0001                	nop
    502030b6:	fe843783          	ld	a5,-24(s0)
    502030ba:	85be                	mv	a1,a5
    502030bc:	4505                	li	a0,1
    502030be:	eebff0ef          	jal	ra,50202fa8 <atomic_swap>
    502030c2:	87aa                	mv	a5,a0
    502030c4:	2781                	sext.w	a5,a5
    502030c6:	fbe5                	bnez	a5,502030b6 <spin_lock_acquire+0xe>
    502030c8:	91cfe0ef          	jal	ra,502011e4 <get_current_cpu_id>
    502030cc:	87aa                	mv	a5,a0
    502030ce:	0007871b          	sext.w	a4,a5
    502030d2:	fe843783          	ld	a5,-24(s0)
    502030d6:	c3d8                	sw	a4,4(a5)
    502030d8:	0001                	nop
    502030da:	60e2                	ld	ra,24(sp)
    502030dc:	6442                	ld	s0,16(sp)
    502030de:	6105                	addi	sp,sp,32
    502030e0:	8082                	ret

00000000502030e2 <spin_lock_release>:
    502030e2:	1101                	addi	sp,sp,-32
    502030e4:	ec06                	sd	ra,24(sp)
    502030e6:	e822                	sd	s0,16(sp)
    502030e8:	1000                	addi	s0,sp,32
    502030ea:	fea43423          	sd	a0,-24(s0)
    502030ee:	fe843783          	ld	a5,-24(s0)
    502030f2:	577d                	li	a4,-1
    502030f4:	c3d8                	sw	a4,4(a5)
    502030f6:	fe843783          	ld	a5,-24(s0)
    502030fa:	85be                	mv	a1,a5
    502030fc:	4501                	li	a0,0
    502030fe:	eabff0ef          	jal	ra,50202fa8 <atomic_swap>
    50203102:	0001                	nop
    50203104:	60e2                	ld	ra,24(sp)
    50203106:	6442                	ld	s0,16(sp)
    50203108:	6105                	addi	sp,sp,32
    5020310a:	8082                	ret

000000005020310c <do_mutex_lock_init>:
    5020310c:	7179                	addi	sp,sp,-48
    5020310e:	f422                	sd	s0,40(sp)
    50203110:	1800                	addi	s0,sp,48
    50203112:	87aa                	mv	a5,a0
    50203114:	fcf42e23          	sw	a5,-36(s0)
    50203118:	fdc42703          	lw	a4,-36(s0)
    5020311c:	41f7579b          	sraiw	a5,a4,0x1f
    50203120:	01c7d79b          	srliw	a5,a5,0x1c
    50203124:	9f3d                	addw	a4,a4,a5
    50203126:	8b3d                	andi	a4,a4,15
    50203128:	40f707bb          	subw	a5,a4,a5
    5020312c:	fef42623          	sw	a5,-20(s0)
    50203130:	fec42783          	lw	a5,-20(s0)
    50203134:	853e                	mv	a0,a5
    50203136:	7422                	ld	s0,40(sp)
    50203138:	6145                	addi	sp,sp,48
    5020313a:	8082                	ret

000000005020313c <do_mutex_lock_acquire>:
    5020313c:	7179                	addi	sp,sp,-48
    5020313e:	f406                	sd	ra,40(sp)
    50203140:	f022                	sd	s0,32(sp)
    50203142:	1800                	addi	s0,sp,48
    50203144:	87aa                	mv	a5,a0
    50203146:	fcf42e23          	sw	a5,-36(s0)
    5020314a:	89afe0ef          	jal	ra,502011e4 <get_current_cpu_id>
    5020314e:	fea43423          	sd	a0,-24(s0)
    50203152:	fdc42703          	lw	a4,-36(s0)
    50203156:	87ba                	mv	a5,a4
    50203158:	078a                	slli	a5,a5,0x2
    5020315a:	97ba                	add	a5,a5,a4
    5020315c:	078e                	slli	a5,a5,0x3
    5020315e:	00007717          	auipc	a4,0x7
    50203162:	d5a70713          	addi	a4,a4,-678 # 50209eb8 <mlocks>
    50203166:	97ba                	add	a5,a5,a4
    50203168:	853e                	mv	a0,a5
    5020316a:	f3fff0ef          	jal	ra,502030a8 <spin_lock_acquire>
    5020316e:	00007697          	auipc	a3,0x7
    50203172:	d4a68693          	addi	a3,a3,-694 # 50209eb8 <mlocks>
    50203176:	fdc42703          	lw	a4,-36(s0)
    5020317a:	87ba                	mv	a5,a4
    5020317c:	078a                	slli	a5,a5,0x2
    5020317e:	97ba                	add	a5,a5,a4
    50203180:	078e                	slli	a5,a5,0x3
    50203182:	97b6                	add	a5,a5,a3
    50203184:	479c                	lw	a5,8(a5)
    50203186:	2781                	sext.w	a5,a5
    50203188:	efbd                	bnez	a5,50203206 <do_mutex_lock_acquire+0xca>
    5020318a:	00007697          	auipc	a3,0x7
    5020318e:	d2e68693          	addi	a3,a3,-722 # 50209eb8 <mlocks>
    50203192:	fdc42703          	lw	a4,-36(s0)
    50203196:	87ba                	mv	a5,a4
    50203198:	078a                	slli	a5,a5,0x2
    5020319a:	97ba                	add	a5,a5,a4
    5020319c:	078e                	slli	a5,a5,0x3
    5020319e:	97b6                	add	a5,a5,a3
    502031a0:	4705                	li	a4,1
    502031a2:	c798                	sw	a4,8(a5)
    502031a4:	00006717          	auipc	a4,0x6
    502031a8:	34c70713          	addi	a4,a4,844 # 502094f0 <current_running>
    502031ac:	fe843783          	ld	a5,-24(s0)
    502031b0:	078e                	slli	a5,a5,0x3
    502031b2:	97ba                	add	a5,a5,a4
    502031b4:	6394                	ld	a3,0(a5)
    502031b6:	00006717          	auipc	a4,0x6
    502031ba:	33a70713          	addi	a4,a4,826 # 502094f0 <current_running>
    502031be:	fe843783          	ld	a5,-24(s0)
    502031c2:	078e                	slli	a5,a5,0x3
    502031c4:	97ba                	add	a5,a5,a4
    502031c6:	639c                	ld	a5,0(a5)
    502031c8:	47b0                	lw	a2,72(a5)
    502031ca:	fdc42703          	lw	a4,-36(s0)
    502031ce:	87ba                	mv	a5,a4
    502031d0:	078a                	slli	a5,a5,0x2
    502031d2:	97ba                	add	a5,a5,a4
    502031d4:	078e                	slli	a5,a5,0x3
    502031d6:	00007717          	auipc	a4,0x7
    502031da:	ce270713          	addi	a4,a4,-798 # 50209eb8 <mlocks>
    502031de:	973e                	add	a4,a4,a5
    502031e0:	00a60793          	addi	a5,a2,10
    502031e4:	078e                	slli	a5,a5,0x3
    502031e6:	97b6                	add	a5,a5,a3
    502031e8:	e798                	sd	a4,8(a5)
    502031ea:	00006717          	auipc	a4,0x6
    502031ee:	30670713          	addi	a4,a4,774 # 502094f0 <current_running>
    502031f2:	fe843783          	ld	a5,-24(s0)
    502031f6:	078e                	slli	a5,a5,0x3
    502031f8:	97ba                	add	a5,a5,a4
    502031fa:	639c                	ld	a5,0(a5)
    502031fc:	47b8                	lw	a4,72(a5)
    502031fe:	2705                	addiw	a4,a4,1
    50203200:	2701                	sext.w	a4,a4
    50203202:	c7b8                	sw	a4,72(a5)
    50203204:	a889                	j	50203256 <do_mutex_lock_acquire+0x11a>
    50203206:	00006717          	auipc	a4,0x6
    5020320a:	2ea70713          	addi	a4,a4,746 # 502094f0 <current_running>
    5020320e:	fe843783          	ld	a5,-24(s0)
    50203212:	078e                	slli	a5,a5,0x3
    50203214:	97ba                	add	a5,a5,a4
    50203216:	639c                	ld	a5,0(a5)
    50203218:	02078693          	addi	a3,a5,32
    5020321c:	fdc42703          	lw	a4,-36(s0)
    50203220:	87ba                	mv	a5,a4
    50203222:	078a                	slli	a5,a5,0x2
    50203224:	97ba                	add	a5,a5,a4
    50203226:	078e                	slli	a5,a5,0x3
    50203228:	01078713          	addi	a4,a5,16
    5020322c:	00007797          	auipc	a5,0x7
    50203230:	c8c78793          	addi	a5,a5,-884 # 50209eb8 <mlocks>
    50203234:	00f705b3          	add	a1,a4,a5
    50203238:	fdc42703          	lw	a4,-36(s0)
    5020323c:	87ba                	mv	a5,a4
    5020323e:	078a                	slli	a5,a5,0x2
    50203240:	97ba                	add	a5,a5,a4
    50203242:	078e                	slli	a5,a5,0x3
    50203244:	00007717          	auipc	a4,0x7
    50203248:	c7470713          	addi	a4,a4,-908 # 50209eb8 <mlocks>
    5020324c:	97ba                	add	a5,a5,a4
    5020324e:	863e                	mv	a2,a5
    50203250:	8536                	mv	a0,a3
    50203252:	159010ef          	jal	ra,50204baa <do_block>
    50203256:	fdc42703          	lw	a4,-36(s0)
    5020325a:	87ba                	mv	a5,a4
    5020325c:	078a                	slli	a5,a5,0x2
    5020325e:	97ba                	add	a5,a5,a4
    50203260:	078e                	slli	a5,a5,0x3
    50203262:	00007717          	auipc	a4,0x7
    50203266:	c5670713          	addi	a4,a4,-938 # 50209eb8 <mlocks>
    5020326a:	97ba                	add	a5,a5,a4
    5020326c:	853e                	mv	a0,a5
    5020326e:	e75ff0ef          	jal	ra,502030e2 <spin_lock_release>
    50203272:	0001                	nop
    50203274:	70a2                	ld	ra,40(sp)
    50203276:	7402                	ld	s0,32(sp)
    50203278:	6145                	addi	sp,sp,48
    5020327a:	8082                	ret

000000005020327c <do_mutex_lock_release>:
    5020327c:	7179                	addi	sp,sp,-48
    5020327e:	f406                	sd	ra,40(sp)
    50203280:	f022                	sd	s0,32(sp)
    50203282:	1800                	addi	s0,sp,48
    50203284:	87aa                	mv	a5,a0
    50203286:	fcf42e23          	sw	a5,-36(s0)
    5020328a:	fdc42703          	lw	a4,-36(s0)
    5020328e:	87ba                	mv	a5,a4
    50203290:	078a                	slli	a5,a5,0x2
    50203292:	97ba                	add	a5,a5,a4
    50203294:	078e                	slli	a5,a5,0x3
    50203296:	00007717          	auipc	a4,0x7
    5020329a:	c2270713          	addi	a4,a4,-990 # 50209eb8 <mlocks>
    5020329e:	97ba                	add	a5,a5,a4
    502032a0:	853e                	mv	a0,a5
    502032a2:	e07ff0ef          	jal	ra,502030a8 <spin_lock_acquire>
    502032a6:	f3ffd0ef          	jal	ra,502011e4 <get_current_cpu_id>
    502032aa:	fea43023          	sd	a0,-32(s0)
    502032ae:	fe042623          	sw	zero,-20(s0)
    502032b2:	a8e1                	j	5020338a <do_mutex_lock_release+0x10e>
    502032b4:	00006717          	auipc	a4,0x6
    502032b8:	23c70713          	addi	a4,a4,572 # 502094f0 <current_running>
    502032bc:	fe043783          	ld	a5,-32(s0)
    502032c0:	078e                	slli	a5,a5,0x3
    502032c2:	97ba                	add	a5,a5,a4
    502032c4:	6398                	ld	a4,0(a5)
    502032c6:	fec42783          	lw	a5,-20(s0)
    502032ca:	07a9                	addi	a5,a5,10
    502032cc:	078e                	slli	a5,a5,0x3
    502032ce:	97ba                	add	a5,a5,a4
    502032d0:	6794                	ld	a3,8(a5)
    502032d2:	fdc42703          	lw	a4,-36(s0)
    502032d6:	87ba                	mv	a5,a4
    502032d8:	078a                	slli	a5,a5,0x2
    502032da:	97ba                	add	a5,a5,a4
    502032dc:	078e                	slli	a5,a5,0x3
    502032de:	00007717          	auipc	a4,0x7
    502032e2:	bda70713          	addi	a4,a4,-1062 # 50209eb8 <mlocks>
    502032e6:	97ba                	add	a5,a5,a4
    502032e8:	08f69c63          	bne	a3,a5,50203380 <do_mutex_lock_release+0x104>
    502032ec:	fec42783          	lw	a5,-20(s0)
    502032f0:	fef42423          	sw	a5,-24(s0)
    502032f4:	a0b1                	j	50203340 <do_mutex_lock_release+0xc4>
    502032f6:	00006717          	auipc	a4,0x6
    502032fa:	1fa70713          	addi	a4,a4,506 # 502094f0 <current_running>
    502032fe:	fe043783          	ld	a5,-32(s0)
    50203302:	078e                	slli	a5,a5,0x3
    50203304:	97ba                	add	a5,a5,a4
    50203306:	6398                	ld	a4,0(a5)
    50203308:	fe842783          	lw	a5,-24(s0)
    5020330c:	2785                	addiw	a5,a5,1
    5020330e:	2781                	sext.w	a5,a5
    50203310:	00006617          	auipc	a2,0x6
    50203314:	1e060613          	addi	a2,a2,480 # 502094f0 <current_running>
    50203318:	fe043683          	ld	a3,-32(s0)
    5020331c:	068e                	slli	a3,a3,0x3
    5020331e:	96b2                	add	a3,a3,a2
    50203320:	6294                	ld	a3,0(a3)
    50203322:	07a9                	addi	a5,a5,10
    50203324:	078e                	slli	a5,a5,0x3
    50203326:	97ba                	add	a5,a5,a4
    50203328:	6798                	ld	a4,8(a5)
    5020332a:	fe842783          	lw	a5,-24(s0)
    5020332e:	07a9                	addi	a5,a5,10
    50203330:	078e                	slli	a5,a5,0x3
    50203332:	97b6                	add	a5,a5,a3
    50203334:	e798                	sd	a4,8(a5)
    50203336:	fe842783          	lw	a5,-24(s0)
    5020333a:	2785                	addiw	a5,a5,1
    5020333c:	fef42423          	sw	a5,-24(s0)
    50203340:	00006717          	auipc	a4,0x6
    50203344:	1b070713          	addi	a4,a4,432 # 502094f0 <current_running>
    50203348:	fe043783          	ld	a5,-32(s0)
    5020334c:	078e                	slli	a5,a5,0x3
    5020334e:	97ba                	add	a5,a5,a4
    50203350:	639c                	ld	a5,0(a5)
    50203352:	47bc                	lw	a5,72(a5)
    50203354:	37fd                	addiw	a5,a5,-1
    50203356:	0007871b          	sext.w	a4,a5
    5020335a:	fe842783          	lw	a5,-24(s0)
    5020335e:	2781                	sext.w	a5,a5
    50203360:	f8e7cbe3          	blt	a5,a4,502032f6 <do_mutex_lock_release+0x7a>
    50203364:	00006717          	auipc	a4,0x6
    50203368:	18c70713          	addi	a4,a4,396 # 502094f0 <current_running>
    5020336c:	fe043783          	ld	a5,-32(s0)
    50203370:	078e                	slli	a5,a5,0x3
    50203372:	97ba                	add	a5,a5,a4
    50203374:	639c                	ld	a5,0(a5)
    50203376:	47b8                	lw	a4,72(a5)
    50203378:	377d                	addiw	a4,a4,-1
    5020337a:	2701                	sext.w	a4,a4
    5020337c:	c7b8                	sw	a4,72(a5)
    5020337e:	a02d                	j	502033a8 <do_mutex_lock_release+0x12c>
    50203380:	fec42783          	lw	a5,-20(s0)
    50203384:	2785                	addiw	a5,a5,1
    50203386:	fef42623          	sw	a5,-20(s0)
    5020338a:	00006717          	auipc	a4,0x6
    5020338e:	16670713          	addi	a4,a4,358 # 502094f0 <current_running>
    50203392:	fe043783          	ld	a5,-32(s0)
    50203396:	078e                	slli	a5,a5,0x3
    50203398:	97ba                	add	a5,a5,a4
    5020339a:	639c                	ld	a5,0(a5)
    5020339c:	47b8                	lw	a4,72(a5)
    5020339e:	fec42783          	lw	a5,-20(s0)
    502033a2:	2781                	sext.w	a5,a5
    502033a4:	f0e7c8e3          	blt	a5,a4,502032b4 <do_mutex_lock_release+0x38>
    502033a8:	fdc42703          	lw	a4,-36(s0)
    502033ac:	87ba                	mv	a5,a4
    502033ae:	078a                	slli	a5,a5,0x2
    502033b0:	97ba                	add	a5,a5,a4
    502033b2:	078e                	slli	a5,a5,0x3
    502033b4:	01078713          	addi	a4,a5,16
    502033b8:	00007797          	auipc	a5,0x7
    502033bc:	b0078793          	addi	a5,a5,-1280 # 50209eb8 <mlocks>
    502033c0:	97ba                	add	a5,a5,a4
    502033c2:	853e                	mv	a0,a5
    502033c4:	b63ff0ef          	jal	ra,50202f26 <list_is_empty>
    502033c8:	87aa                	mv	a5,a0
    502033ca:	cf99                	beqz	a5,502033e8 <do_mutex_lock_release+0x16c>
    502033cc:	00007697          	auipc	a3,0x7
    502033d0:	aec68693          	addi	a3,a3,-1300 # 50209eb8 <mlocks>
    502033d4:	fdc42703          	lw	a4,-36(s0)
    502033d8:	87ba                	mv	a5,a4
    502033da:	078a                	slli	a5,a5,0x2
    502033dc:	97ba                	add	a5,a5,a4
    502033de:	078e                	slli	a5,a5,0x3
    502033e0:	97b6                	add	a5,a5,a3
    502033e2:	0007a423          	sw	zero,8(a5)
    502033e6:	a005                	j	50203406 <do_mutex_lock_release+0x18a>
    502033e8:	00007697          	auipc	a3,0x7
    502033ec:	ad068693          	addi	a3,a3,-1328 # 50209eb8 <mlocks>
    502033f0:	fdc42703          	lw	a4,-36(s0)
    502033f4:	87ba                	mv	a5,a4
    502033f6:	078a                	slli	a5,a5,0x2
    502033f8:	97ba                	add	a5,a5,a4
    502033fa:	078e                	slli	a5,a5,0x3
    502033fc:	97b6                	add	a5,a5,a3
    502033fe:	6b9c                	ld	a5,16(a5)
    50203400:	853e                	mv	a0,a5
    50203402:	015010ef          	jal	ra,50204c16 <do_unblock>
    50203406:	fdc42703          	lw	a4,-36(s0)
    5020340a:	87ba                	mv	a5,a4
    5020340c:	078a                	slli	a5,a5,0x2
    5020340e:	97ba                	add	a5,a5,a4
    50203410:	078e                	slli	a5,a5,0x3
    50203412:	00007717          	auipc	a4,0x7
    50203416:	aa670713          	addi	a4,a4,-1370 # 50209eb8 <mlocks>
    5020341a:	97ba                	add	a5,a5,a4
    5020341c:	853e                	mv	a0,a5
    5020341e:	cc5ff0ef          	jal	ra,502030e2 <spin_lock_release>
    50203422:	0001                	nop
    50203424:	70a2                	ld	ra,40(sp)
    50203426:	7402                	ld	s0,32(sp)
    50203428:	6145                	addi	sp,sp,48
    5020342a:	8082                	ret

000000005020342c <init_barriers>:
    5020342c:	1101                	addi	sp,sp,-32
    5020342e:	ec06                	sd	ra,24(sp)
    50203430:	e822                	sd	s0,16(sp)
    50203432:	1000                	addi	s0,sp,32
    50203434:	fe042623          	sw	zero,-20(s0)
    50203438:	a869                	j	502034d2 <init_barriers+0xa6>
    5020343a:	00007697          	auipc	a3,0x7
    5020343e:	cfe68693          	addi	a3,a3,-770 # 5020a138 <barrier>
    50203442:	fec42703          	lw	a4,-20(s0)
    50203446:	87ba                	mv	a5,a4
    50203448:	078a                	slli	a5,a5,0x2
    5020344a:	97ba                	add	a5,a5,a4
    5020344c:	078e                	slli	a5,a5,0x3
    5020344e:	97b6                	add	a5,a5,a3
    50203450:	0007a023          	sw	zero,0(a5)
    50203454:	00007697          	auipc	a3,0x7
    50203458:	ce468693          	addi	a3,a3,-796 # 5020a138 <barrier>
    5020345c:	fec42703          	lw	a4,-20(s0)
    50203460:	87ba                	mv	a5,a4
    50203462:	078a                	slli	a5,a5,0x2
    50203464:	97ba                	add	a5,a5,a4
    50203466:	078e                	slli	a5,a5,0x3
    50203468:	97b6                	add	a5,a5,a3
    5020346a:	0007a223          	sw	zero,4(a5)
    5020346e:	fec42703          	lw	a4,-20(s0)
    50203472:	87ba                	mv	a5,a4
    50203474:	078a                	slli	a5,a5,0x2
    50203476:	97ba                	add	a5,a5,a4
    50203478:	078e                	slli	a5,a5,0x3
    5020347a:	00007717          	auipc	a4,0x7
    5020347e:	cbe70713          	addi	a4,a4,-834 # 5020a138 <barrier>
    50203482:	97ba                	add	a5,a5,a4
    50203484:	07a1                	addi	a5,a5,8
    50203486:	853e                	mv	a0,a5
    50203488:	bb9ff0ef          	jal	ra,50203040 <spin_lock_init>
    5020348c:	00007697          	auipc	a3,0x7
    50203490:	cac68693          	addi	a3,a3,-852 # 5020a138 <barrier>
    50203494:	fec42703          	lw	a4,-20(s0)
    50203498:	87ba                	mv	a5,a4
    5020349a:	078a                	slli	a5,a5,0x2
    5020349c:	97ba                	add	a5,a5,a4
    5020349e:	078e                	slli	a5,a5,0x3
    502034a0:	97b6                	add	a5,a5,a3
    502034a2:	0007a823          	sw	zero,16(a5)
    502034a6:	fec42703          	lw	a4,-20(s0)
    502034aa:	87ba                	mv	a5,a4
    502034ac:	078a                	slli	a5,a5,0x2
    502034ae:	97ba                	add	a5,a5,a4
    502034b0:	078e                	slli	a5,a5,0x3
    502034b2:	01078713          	addi	a4,a5,16
    502034b6:	00007797          	auipc	a5,0x7
    502034ba:	c8278793          	addi	a5,a5,-894 # 5020a138 <barrier>
    502034be:	97ba                	add	a5,a5,a4
    502034c0:	07a1                	addi	a5,a5,8
    502034c2:	853e                	mv	a0,a5
    502034c4:	a8dff0ef          	jal	ra,50202f50 <list_init>
    502034c8:	fec42783          	lw	a5,-20(s0)
    502034cc:	2785                	addiw	a5,a5,1
    502034ce:	fef42623          	sw	a5,-20(s0)
    502034d2:	fec42783          	lw	a5,-20(s0)
    502034d6:	0007871b          	sext.w	a4,a5
    502034da:	47bd                	li	a5,15
    502034dc:	f4e7dfe3          	bge	a5,a4,5020343a <init_barriers+0xe>
    502034e0:	0001                	nop
    502034e2:	0001                	nop
    502034e4:	60e2                	ld	ra,24(sp)
    502034e6:	6442                	ld	s0,16(sp)
    502034e8:	6105                	addi	sp,sp,32
    502034ea:	8082                	ret

00000000502034ec <do_barrier_init>:
    502034ec:	7179                	addi	sp,sp,-48
    502034ee:	f406                	sd	ra,40(sp)
    502034f0:	f022                	sd	s0,32(sp)
    502034f2:	1800                	addi	s0,sp,48
    502034f4:	87aa                	mv	a5,a0
    502034f6:	872e                	mv	a4,a1
    502034f8:	fcf42e23          	sw	a5,-36(s0)
    502034fc:	87ba                	mv	a5,a4
    502034fe:	fcf42c23          	sw	a5,-40(s0)
    50203502:	fdc42703          	lw	a4,-36(s0)
    50203506:	41f7579b          	sraiw	a5,a4,0x1f
    5020350a:	01c7d79b          	srliw	a5,a5,0x1c
    5020350e:	9f3d                	addw	a4,a4,a5
    50203510:	8b3d                	andi	a4,a4,15
    50203512:	40f707bb          	subw	a5,a4,a5
    50203516:	fef42623          	sw	a5,-20(s0)
    5020351a:	fec42703          	lw	a4,-20(s0)
    5020351e:	87ba                	mv	a5,a4
    50203520:	078a                	slli	a5,a5,0x2
    50203522:	97ba                	add	a5,a5,a4
    50203524:	078e                	slli	a5,a5,0x3
    50203526:	00007717          	auipc	a4,0x7
    5020352a:	c1270713          	addi	a4,a4,-1006 # 5020a138 <barrier>
    5020352e:	97ba                	add	a5,a5,a4
    50203530:	07a1                	addi	a5,a5,8
    50203532:	853e                	mv	a0,a5
    50203534:	b75ff0ef          	jal	ra,502030a8 <spin_lock_acquire>
    50203538:	00007697          	auipc	a3,0x7
    5020353c:	c0068693          	addi	a3,a3,-1024 # 5020a138 <barrier>
    50203540:	fec42703          	lw	a4,-20(s0)
    50203544:	87ba                	mv	a5,a4
    50203546:	078a                	slli	a5,a5,0x2
    50203548:	97ba                	add	a5,a5,a4
    5020354a:	078e                	slli	a5,a5,0x3
    5020354c:	97b6                	add	a5,a5,a3
    5020354e:	fd842703          	lw	a4,-40(s0)
    50203552:	c398                	sw	a4,0(a5)
    50203554:	00007697          	auipc	a3,0x7
    50203558:	be468693          	addi	a3,a3,-1052 # 5020a138 <barrier>
    5020355c:	fec42703          	lw	a4,-20(s0)
    50203560:	87ba                	mv	a5,a4
    50203562:	078a                	slli	a5,a5,0x2
    50203564:	97ba                	add	a5,a5,a4
    50203566:	078e                	slli	a5,a5,0x3
    50203568:	97b6                	add	a5,a5,a3
    5020356a:	0007a223          	sw	zero,4(a5)
    5020356e:	fec42703          	lw	a4,-20(s0)
    50203572:	87ba                	mv	a5,a4
    50203574:	078a                	slli	a5,a5,0x2
    50203576:	97ba                	add	a5,a5,a4
    50203578:	078e                	slli	a5,a5,0x3
    5020357a:	01078713          	addi	a4,a5,16
    5020357e:	00007797          	auipc	a5,0x7
    50203582:	bba78793          	addi	a5,a5,-1094 # 5020a138 <barrier>
    50203586:	97ba                	add	a5,a5,a4
    50203588:	07a1                	addi	a5,a5,8
    5020358a:	853e                	mv	a0,a5
    5020358c:	9c5ff0ef          	jal	ra,50202f50 <list_init>
    50203590:	fec42703          	lw	a4,-20(s0)
    50203594:	87ba                	mv	a5,a4
    50203596:	078a                	slli	a5,a5,0x2
    50203598:	97ba                	add	a5,a5,a4
    5020359a:	078e                	slli	a5,a5,0x3
    5020359c:	00007717          	auipc	a4,0x7
    502035a0:	b9c70713          	addi	a4,a4,-1124 # 5020a138 <barrier>
    502035a4:	97ba                	add	a5,a5,a4
    502035a6:	07a1                	addi	a5,a5,8
    502035a8:	853e                	mv	a0,a5
    502035aa:	b39ff0ef          	jal	ra,502030e2 <spin_lock_release>
    502035ae:	fec42783          	lw	a5,-20(s0)
    502035b2:	853e                	mv	a0,a5
    502035b4:	70a2                	ld	ra,40(sp)
    502035b6:	7402                	ld	s0,32(sp)
    502035b8:	6145                	addi	sp,sp,48
    502035ba:	8082                	ret

00000000502035bc <do_barrier_wait>:
    502035bc:	7179                	addi	sp,sp,-48
    502035be:	f406                	sd	ra,40(sp)
    502035c0:	f022                	sd	s0,32(sp)
    502035c2:	1800                	addi	s0,sp,48
    502035c4:	87aa                	mv	a5,a0
    502035c6:	fcf42e23          	sw	a5,-36(s0)
    502035ca:	fdc42703          	lw	a4,-36(s0)
    502035ce:	87ba                	mv	a5,a4
    502035d0:	078a                	slli	a5,a5,0x2
    502035d2:	97ba                	add	a5,a5,a4
    502035d4:	078e                	slli	a5,a5,0x3
    502035d6:	00007717          	auipc	a4,0x7
    502035da:	b6270713          	addi	a4,a4,-1182 # 5020a138 <barrier>
    502035de:	97ba                	add	a5,a5,a4
    502035e0:	07a1                	addi	a5,a5,8
    502035e2:	853e                	mv	a0,a5
    502035e4:	ac5ff0ef          	jal	ra,502030a8 <spin_lock_acquire>
    502035e8:	bfdfd0ef          	jal	ra,502011e4 <get_current_cpu_id>
    502035ec:	fea43423          	sd	a0,-24(s0)
    502035f0:	00007697          	auipc	a3,0x7
    502035f4:	b4868693          	addi	a3,a3,-1208 # 5020a138 <barrier>
    502035f8:	fdc42703          	lw	a4,-36(s0)
    502035fc:	87ba                	mv	a5,a4
    502035fe:	078a                	slli	a5,a5,0x2
    50203600:	97ba                	add	a5,a5,a4
    50203602:	078e                	slli	a5,a5,0x3
    50203604:	97b6                	add	a5,a5,a3
    50203606:	43dc                	lw	a5,4(a5)
    50203608:	2785                	addiw	a5,a5,1
    5020360a:	0007869b          	sext.w	a3,a5
    5020360e:	00007617          	auipc	a2,0x7
    50203612:	b2a60613          	addi	a2,a2,-1238 # 5020a138 <barrier>
    50203616:	fdc42703          	lw	a4,-36(s0)
    5020361a:	87ba                	mv	a5,a4
    5020361c:	078a                	slli	a5,a5,0x2
    5020361e:	97ba                	add	a5,a5,a4
    50203620:	078e                	slli	a5,a5,0x3
    50203622:	97b2                	add	a5,a5,a2
    50203624:	c3d4                	sw	a3,4(a5)
    50203626:	00007697          	auipc	a3,0x7
    5020362a:	b1268693          	addi	a3,a3,-1262 # 5020a138 <barrier>
    5020362e:	fdc42703          	lw	a4,-36(s0)
    50203632:	87ba                	mv	a5,a4
    50203634:	078a                	slli	a5,a5,0x2
    50203636:	97ba                	add	a5,a5,a4
    50203638:	078e                	slli	a5,a5,0x3
    5020363a:	97b6                	add	a5,a5,a3
    5020363c:	43d0                	lw	a2,4(a5)
    5020363e:	00007697          	auipc	a3,0x7
    50203642:	afa68693          	addi	a3,a3,-1286 # 5020a138 <barrier>
    50203646:	fdc42703          	lw	a4,-36(s0)
    5020364a:	87ba                	mv	a5,a4
    5020364c:	078a                	slli	a5,a5,0x2
    5020364e:	97ba                	add	a5,a5,a4
    50203650:	078e                	slli	a5,a5,0x3
    50203652:	97b6                	add	a5,a5,a3
    50203654:	439c                	lw	a5,0(a5)
    50203656:	8732                	mv	a4,a2
    50203658:	06f74663          	blt	a4,a5,502036c4 <do_barrier_wait+0x108>
    5020365c:	a01d                	j	50203682 <do_barrier_wait+0xc6>
    5020365e:	00007697          	auipc	a3,0x7
    50203662:	ada68693          	addi	a3,a3,-1318 # 5020a138 <barrier>
    50203666:	fdc42703          	lw	a4,-36(s0)
    5020366a:	87ba                	mv	a5,a4
    5020366c:	078a                	slli	a5,a5,0x2
    5020366e:	97ba                	add	a5,a5,a4
    50203670:	078e                	slli	a5,a5,0x3
    50203672:	97b6                	add	a5,a5,a3
    50203674:	6f9c                	ld	a5,24(a5)
    50203676:	fef43023          	sd	a5,-32(s0)
    5020367a:	fe043503          	ld	a0,-32(s0)
    5020367e:	598010ef          	jal	ra,50204c16 <do_unblock>
    50203682:	fdc42703          	lw	a4,-36(s0)
    50203686:	87ba                	mv	a5,a4
    50203688:	078a                	slli	a5,a5,0x2
    5020368a:	97ba                	add	a5,a5,a4
    5020368c:	078e                	slli	a5,a5,0x3
    5020368e:	01078713          	addi	a4,a5,16
    50203692:	00007797          	auipc	a5,0x7
    50203696:	aa678793          	addi	a5,a5,-1370 # 5020a138 <barrier>
    5020369a:	97ba                	add	a5,a5,a4
    5020369c:	07a1                	addi	a5,a5,8
    5020369e:	853e                	mv	a0,a5
    502036a0:	887ff0ef          	jal	ra,50202f26 <list_is_empty>
    502036a4:	87aa                	mv	a5,a0
    502036a6:	dfc5                	beqz	a5,5020365e <do_barrier_wait+0xa2>
    502036a8:	00007697          	auipc	a3,0x7
    502036ac:	a9068693          	addi	a3,a3,-1392 # 5020a138 <barrier>
    502036b0:	fdc42703          	lw	a4,-36(s0)
    502036b4:	87ba                	mv	a5,a4
    502036b6:	078a                	slli	a5,a5,0x2
    502036b8:	97ba                	add	a5,a5,a4
    502036ba:	078e                	slli	a5,a5,0x3
    502036bc:	97b6                	add	a5,a5,a3
    502036be:	0007a223          	sw	zero,4(a5)
    502036c2:	a899                	j	50203718 <do_barrier_wait+0x15c>
    502036c4:	00006717          	auipc	a4,0x6
    502036c8:	e2c70713          	addi	a4,a4,-468 # 502094f0 <current_running>
    502036cc:	fe843783          	ld	a5,-24(s0)
    502036d0:	078e                	slli	a5,a5,0x3
    502036d2:	97ba                	add	a5,a5,a4
    502036d4:	639c                	ld	a5,0(a5)
    502036d6:	02078693          	addi	a3,a5,32
    502036da:	fdc42703          	lw	a4,-36(s0)
    502036de:	87ba                	mv	a5,a4
    502036e0:	078a                	slli	a5,a5,0x2
    502036e2:	97ba                	add	a5,a5,a4
    502036e4:	078e                	slli	a5,a5,0x3
    502036e6:	01078713          	addi	a4,a5,16
    502036ea:	00007797          	auipc	a5,0x7
    502036ee:	a4e78793          	addi	a5,a5,-1458 # 5020a138 <barrier>
    502036f2:	97ba                	add	a5,a5,a4
    502036f4:	00878593          	addi	a1,a5,8
    502036f8:	fdc42703          	lw	a4,-36(s0)
    502036fc:	87ba                	mv	a5,a4
    502036fe:	078a                	slli	a5,a5,0x2
    50203700:	97ba                	add	a5,a5,a4
    50203702:	078e                	slli	a5,a5,0x3
    50203704:	00007717          	auipc	a4,0x7
    50203708:	a3470713          	addi	a4,a4,-1484 # 5020a138 <barrier>
    5020370c:	97ba                	add	a5,a5,a4
    5020370e:	07a1                	addi	a5,a5,8
    50203710:	863e                	mv	a2,a5
    50203712:	8536                	mv	a0,a3
    50203714:	496010ef          	jal	ra,50204baa <do_block>
    50203718:	fdc42703          	lw	a4,-36(s0)
    5020371c:	87ba                	mv	a5,a4
    5020371e:	078a                	slli	a5,a5,0x2
    50203720:	97ba                	add	a5,a5,a4
    50203722:	078e                	slli	a5,a5,0x3
    50203724:	00007717          	auipc	a4,0x7
    50203728:	a1470713          	addi	a4,a4,-1516 # 5020a138 <barrier>
    5020372c:	97ba                	add	a5,a5,a4
    5020372e:	07a1                	addi	a5,a5,8
    50203730:	853e                	mv	a0,a5
    50203732:	9b1ff0ef          	jal	ra,502030e2 <spin_lock_release>
    50203736:	0001                	nop
    50203738:	70a2                	ld	ra,40(sp)
    5020373a:	7402                	ld	s0,32(sp)
    5020373c:	6145                	addi	sp,sp,48
    5020373e:	8082                	ret

0000000050203740 <do_barrier_destroy>:
    50203740:	1101                	addi	sp,sp,-32
    50203742:	ec06                	sd	ra,24(sp)
    50203744:	e822                	sd	s0,16(sp)
    50203746:	1000                	addi	s0,sp,32
    50203748:	87aa                	mv	a5,a0
    5020374a:	fef42623          	sw	a5,-20(s0)
    5020374e:	fec42703          	lw	a4,-20(s0)
    50203752:	87ba                	mv	a5,a4
    50203754:	078a                	slli	a5,a5,0x2
    50203756:	97ba                	add	a5,a5,a4
    50203758:	078e                	slli	a5,a5,0x3
    5020375a:	00007717          	auipc	a4,0x7
    5020375e:	9de70713          	addi	a4,a4,-1570 # 5020a138 <barrier>
    50203762:	97ba                	add	a5,a5,a4
    50203764:	07a1                	addi	a5,a5,8
    50203766:	853e                	mv	a0,a5
    50203768:	941ff0ef          	jal	ra,502030a8 <spin_lock_acquire>
    5020376c:	00007697          	auipc	a3,0x7
    50203770:	9cc68693          	addi	a3,a3,-1588 # 5020a138 <barrier>
    50203774:	fec42703          	lw	a4,-20(s0)
    50203778:	87ba                	mv	a5,a4
    5020377a:	078a                	slli	a5,a5,0x2
    5020377c:	97ba                	add	a5,a5,a4
    5020377e:	078e                	slli	a5,a5,0x3
    50203780:	97b6                	add	a5,a5,a3
    50203782:	0007a023          	sw	zero,0(a5)
    50203786:	00007697          	auipc	a3,0x7
    5020378a:	9b268693          	addi	a3,a3,-1614 # 5020a138 <barrier>
    5020378e:	fec42703          	lw	a4,-20(s0)
    50203792:	87ba                	mv	a5,a4
    50203794:	078a                	slli	a5,a5,0x2
    50203796:	97ba                	add	a5,a5,a4
    50203798:	078e                	slli	a5,a5,0x3
    5020379a:	97b6                	add	a5,a5,a3
    5020379c:	0007a223          	sw	zero,4(a5)
    502037a0:	a005                	j	502037c0 <do_barrier_destroy+0x80>
    502037a2:	00007697          	auipc	a3,0x7
    502037a6:	99668693          	addi	a3,a3,-1642 # 5020a138 <barrier>
    502037aa:	fec42703          	lw	a4,-20(s0)
    502037ae:	87ba                	mv	a5,a4
    502037b0:	078a                	slli	a5,a5,0x2
    502037b2:	97ba                	add	a5,a5,a4
    502037b4:	078e                	slli	a5,a5,0x3
    502037b6:	97b6                	add	a5,a5,a3
    502037b8:	6f9c                	ld	a5,24(a5)
    502037ba:	853e                	mv	a0,a5
    502037bc:	45a010ef          	jal	ra,50204c16 <do_unblock>
    502037c0:	fec42703          	lw	a4,-20(s0)
    502037c4:	87ba                	mv	a5,a4
    502037c6:	078a                	slli	a5,a5,0x2
    502037c8:	97ba                	add	a5,a5,a4
    502037ca:	078e                	slli	a5,a5,0x3
    502037cc:	01078713          	addi	a4,a5,16
    502037d0:	00007797          	auipc	a5,0x7
    502037d4:	96878793          	addi	a5,a5,-1688 # 5020a138 <barrier>
    502037d8:	97ba                	add	a5,a5,a4
    502037da:	07a1                	addi	a5,a5,8
    502037dc:	853e                	mv	a0,a5
    502037de:	f48ff0ef          	jal	ra,50202f26 <list_is_empty>
    502037e2:	87aa                	mv	a5,a0
    502037e4:	dfdd                	beqz	a5,502037a2 <do_barrier_destroy+0x62>
    502037e6:	fec42703          	lw	a4,-20(s0)
    502037ea:	87ba                	mv	a5,a4
    502037ec:	078a                	slli	a5,a5,0x2
    502037ee:	97ba                	add	a5,a5,a4
    502037f0:	078e                	slli	a5,a5,0x3
    502037f2:	00007717          	auipc	a4,0x7
    502037f6:	94670713          	addi	a4,a4,-1722 # 5020a138 <barrier>
    502037fa:	97ba                	add	a5,a5,a4
    502037fc:	07a1                	addi	a5,a5,8
    502037fe:	853e                	mv	a0,a5
    50203800:	8e3ff0ef          	jal	ra,502030e2 <spin_lock_release>
    50203804:	0001                	nop
    50203806:	60e2                	ld	ra,24(sp)
    50203808:	6442                	ld	s0,16(sp)
    5020380a:	6105                	addi	sp,sp,32
    5020380c:	8082                	ret

000000005020380e <init_semaphores>:
    5020380e:	1101                	addi	sp,sp,-32
    50203810:	ec06                	sd	ra,24(sp)
    50203812:	e822                	sd	s0,16(sp)
    50203814:	1000                	addi	s0,sp,32
    50203816:	fe042623          	sw	zero,-20(s0)
    5020381a:	a09d                	j	50203880 <init_semaphores+0x72>
    5020381c:	fec42783          	lw	a5,-20(s0)
    50203820:	00579713          	slli	a4,a5,0x5
    50203824:	00007797          	auipc	a5,0x7
    50203828:	d9478793          	addi	a5,a5,-620 # 5020a5b8 <sema>
    5020382c:	97ba                	add	a5,a5,a4
    5020382e:	853e                	mv	a0,a5
    50203830:	811ff0ef          	jal	ra,50203040 <spin_lock_init>
    50203834:	00007717          	auipc	a4,0x7
    50203838:	d8470713          	addi	a4,a4,-636 # 5020a5b8 <sema>
    5020383c:	fec42783          	lw	a5,-20(s0)
    50203840:	0796                	slli	a5,a5,0x5
    50203842:	97ba                	add	a5,a5,a4
    50203844:	0007ac23          	sw	zero,24(a5)
    50203848:	00007717          	auipc	a4,0x7
    5020384c:	d7070713          	addi	a4,a4,-656 # 5020a5b8 <sema>
    50203850:	fec42783          	lw	a5,-20(s0)
    50203854:	0796                	slli	a5,a5,0x5
    50203856:	97ba                	add	a5,a5,a4
    50203858:	0007ae23          	sw	zero,28(a5)
    5020385c:	fec42783          	lw	a5,-20(s0)
    50203860:	00579713          	slli	a4,a5,0x5
    50203864:	00007797          	auipc	a5,0x7
    50203868:	d5478793          	addi	a5,a5,-684 # 5020a5b8 <sema>
    5020386c:	97ba                	add	a5,a5,a4
    5020386e:	07a1                	addi	a5,a5,8
    50203870:	853e                	mv	a0,a5
    50203872:	edeff0ef          	jal	ra,50202f50 <list_init>
    50203876:	fec42783          	lw	a5,-20(s0)
    5020387a:	2785                	addiw	a5,a5,1
    5020387c:	fef42623          	sw	a5,-20(s0)
    50203880:	fec42783          	lw	a5,-20(s0)
    50203884:	0007871b          	sext.w	a4,a5
    50203888:	47bd                	li	a5,15
    5020388a:	f8e7d9e3          	bge	a5,a4,5020381c <init_semaphores+0xe>
    5020388e:	0001                	nop
    50203890:	0001                	nop
    50203892:	60e2                	ld	ra,24(sp)
    50203894:	6442                	ld	s0,16(sp)
    50203896:	6105                	addi	sp,sp,32
    50203898:	8082                	ret

000000005020389a <do_semaphore_init>:
    5020389a:	7179                	addi	sp,sp,-48
    5020389c:	f406                	sd	ra,40(sp)
    5020389e:	f022                	sd	s0,32(sp)
    502038a0:	1800                	addi	s0,sp,48
    502038a2:	87aa                	mv	a5,a0
    502038a4:	872e                	mv	a4,a1
    502038a6:	fcf42e23          	sw	a5,-36(s0)
    502038aa:	87ba                	mv	a5,a4
    502038ac:	fcf42c23          	sw	a5,-40(s0)
    502038b0:	fdc42703          	lw	a4,-36(s0)
    502038b4:	41f7579b          	sraiw	a5,a4,0x1f
    502038b8:	01c7d79b          	srliw	a5,a5,0x1c
    502038bc:	9f3d                	addw	a4,a4,a5
    502038be:	8b3d                	andi	a4,a4,15
    502038c0:	40f707bb          	subw	a5,a4,a5
    502038c4:	fef42623          	sw	a5,-20(s0)
    502038c8:	fec42783          	lw	a5,-20(s0)
    502038cc:	00579713          	slli	a4,a5,0x5
    502038d0:	00007797          	auipc	a5,0x7
    502038d4:	ce878793          	addi	a5,a5,-792 # 5020a5b8 <sema>
    502038d8:	97ba                	add	a5,a5,a4
    502038da:	853e                	mv	a0,a5
    502038dc:	fccff0ef          	jal	ra,502030a8 <spin_lock_acquire>
    502038e0:	00007717          	auipc	a4,0x7
    502038e4:	cd870713          	addi	a4,a4,-808 # 5020a5b8 <sema>
    502038e8:	fec42783          	lw	a5,-20(s0)
    502038ec:	0796                	slli	a5,a5,0x5
    502038ee:	97ba                	add	a5,a5,a4
    502038f0:	fd842703          	lw	a4,-40(s0)
    502038f4:	cf98                	sw	a4,24(a5)
    502038f6:	fec42783          	lw	a5,-20(s0)
    502038fa:	00579713          	slli	a4,a5,0x5
    502038fe:	00007797          	auipc	a5,0x7
    50203902:	cba78793          	addi	a5,a5,-838 # 5020a5b8 <sema>
    50203906:	97ba                	add	a5,a5,a4
    50203908:	07a1                	addi	a5,a5,8
    5020390a:	853e                	mv	a0,a5
    5020390c:	e44ff0ef          	jal	ra,50202f50 <list_init>
    50203910:	fec42783          	lw	a5,-20(s0)
    50203914:	00579713          	slli	a4,a5,0x5
    50203918:	00007797          	auipc	a5,0x7
    5020391c:	ca078793          	addi	a5,a5,-864 # 5020a5b8 <sema>
    50203920:	97ba                	add	a5,a5,a4
    50203922:	853e                	mv	a0,a5
    50203924:	fbeff0ef          	jal	ra,502030e2 <spin_lock_release>
    50203928:	fec42783          	lw	a5,-20(s0)
    5020392c:	853e                	mv	a0,a5
    5020392e:	70a2                	ld	ra,40(sp)
    50203930:	7402                	ld	s0,32(sp)
    50203932:	6145                	addi	sp,sp,48
    50203934:	8082                	ret

0000000050203936 <do_semaphore_down>:
    50203936:	1101                	addi	sp,sp,-32
    50203938:	ec06                	sd	ra,24(sp)
    5020393a:	e822                	sd	s0,16(sp)
    5020393c:	1000                	addi	s0,sp,32
    5020393e:	87aa                	mv	a5,a0
    50203940:	fef42623          	sw	a5,-20(s0)
    50203944:	fec42783          	lw	a5,-20(s0)
    50203948:	00579713          	slli	a4,a5,0x5
    5020394c:	00007797          	auipc	a5,0x7
    50203950:	c6c78793          	addi	a5,a5,-916 # 5020a5b8 <sema>
    50203954:	97ba                	add	a5,a5,a4
    50203956:	853e                	mv	a0,a5
    50203958:	f50ff0ef          	jal	ra,502030a8 <spin_lock_acquire>
    5020395c:	a0a9                	j	502039a6 <do_semaphore_down+0x70>
    5020395e:	887fd0ef          	jal	ra,502011e4 <get_current_cpu_id>
    50203962:	87aa                	mv	a5,a0
    50203964:	00006717          	auipc	a4,0x6
    50203968:	b8c70713          	addi	a4,a4,-1140 # 502094f0 <current_running>
    5020396c:	078e                	slli	a5,a5,0x3
    5020396e:	97ba                	add	a5,a5,a4
    50203970:	639c                	ld	a5,0(a5)
    50203972:	02078693          	addi	a3,a5,32
    50203976:	fec42783          	lw	a5,-20(s0)
    5020397a:	00579713          	slli	a4,a5,0x5
    5020397e:	00007797          	auipc	a5,0x7
    50203982:	c3a78793          	addi	a5,a5,-966 # 5020a5b8 <sema>
    50203986:	97ba                	add	a5,a5,a4
    50203988:	00878593          	addi	a1,a5,8
    5020398c:	fec42783          	lw	a5,-20(s0)
    50203990:	00579713          	slli	a4,a5,0x5
    50203994:	00007797          	auipc	a5,0x7
    50203998:	c2478793          	addi	a5,a5,-988 # 5020a5b8 <sema>
    5020399c:	97ba                	add	a5,a5,a4
    5020399e:	863e                	mv	a2,a5
    502039a0:	8536                	mv	a0,a3
    502039a2:	208010ef          	jal	ra,50204baa <do_block>
    502039a6:	00007717          	auipc	a4,0x7
    502039aa:	c1270713          	addi	a4,a4,-1006 # 5020a5b8 <sema>
    502039ae:	fec42783          	lw	a5,-20(s0)
    502039b2:	0796                	slli	a5,a5,0x5
    502039b4:	97ba                	add	a5,a5,a4
    502039b6:	4f9c                	lw	a5,24(a5)
    502039b8:	faf053e3          	blez	a5,5020395e <do_semaphore_down+0x28>
    502039bc:	00007717          	auipc	a4,0x7
    502039c0:	bfc70713          	addi	a4,a4,-1028 # 5020a5b8 <sema>
    502039c4:	fec42783          	lw	a5,-20(s0)
    502039c8:	0796                	slli	a5,a5,0x5
    502039ca:	97ba                	add	a5,a5,a4
    502039cc:	4f9c                	lw	a5,24(a5)
    502039ce:	37fd                	addiw	a5,a5,-1
    502039d0:	0007871b          	sext.w	a4,a5
    502039d4:	00007697          	auipc	a3,0x7
    502039d8:	be468693          	addi	a3,a3,-1052 # 5020a5b8 <sema>
    502039dc:	fec42783          	lw	a5,-20(s0)
    502039e0:	0796                	slli	a5,a5,0x5
    502039e2:	97b6                	add	a5,a5,a3
    502039e4:	cf98                	sw	a4,24(a5)
    502039e6:	fec42783          	lw	a5,-20(s0)
    502039ea:	00579713          	slli	a4,a5,0x5
    502039ee:	00007797          	auipc	a5,0x7
    502039f2:	bca78793          	addi	a5,a5,-1078 # 5020a5b8 <sema>
    502039f6:	97ba                	add	a5,a5,a4
    502039f8:	853e                	mv	a0,a5
    502039fa:	ee8ff0ef          	jal	ra,502030e2 <spin_lock_release>
    502039fe:	0001                	nop
    50203a00:	60e2                	ld	ra,24(sp)
    50203a02:	6442                	ld	s0,16(sp)
    50203a04:	6105                	addi	sp,sp,32
    50203a06:	8082                	ret

0000000050203a08 <do_semaphore_up>:
    50203a08:	1101                	addi	sp,sp,-32
    50203a0a:	ec06                	sd	ra,24(sp)
    50203a0c:	e822                	sd	s0,16(sp)
    50203a0e:	1000                	addi	s0,sp,32
    50203a10:	87aa                	mv	a5,a0
    50203a12:	fef42623          	sw	a5,-20(s0)
    50203a16:	fec42783          	lw	a5,-20(s0)
    50203a1a:	00579713          	slli	a4,a5,0x5
    50203a1e:	00007797          	auipc	a5,0x7
    50203a22:	b9a78793          	addi	a5,a5,-1126 # 5020a5b8 <sema>
    50203a26:	97ba                	add	a5,a5,a4
    50203a28:	853e                	mv	a0,a5
    50203a2a:	e7eff0ef          	jal	ra,502030a8 <spin_lock_acquire>
    50203a2e:	00007717          	auipc	a4,0x7
    50203a32:	b8a70713          	addi	a4,a4,-1142 # 5020a5b8 <sema>
    50203a36:	fec42783          	lw	a5,-20(s0)
    50203a3a:	0796                	slli	a5,a5,0x5
    50203a3c:	97ba                	add	a5,a5,a4
    50203a3e:	4f9c                	lw	a5,24(a5)
    50203a40:	2785                	addiw	a5,a5,1
    50203a42:	0007871b          	sext.w	a4,a5
    50203a46:	00007697          	auipc	a3,0x7
    50203a4a:	b7268693          	addi	a3,a3,-1166 # 5020a5b8 <sema>
    50203a4e:	fec42783          	lw	a5,-20(s0)
    50203a52:	0796                	slli	a5,a5,0x5
    50203a54:	97b6                	add	a5,a5,a3
    50203a56:	cf98                	sw	a4,24(a5)
    50203a58:	fec42783          	lw	a5,-20(s0)
    50203a5c:	00579713          	slli	a4,a5,0x5
    50203a60:	00007797          	auipc	a5,0x7
    50203a64:	b5878793          	addi	a5,a5,-1192 # 5020a5b8 <sema>
    50203a68:	97ba                	add	a5,a5,a4
    50203a6a:	07a1                	addi	a5,a5,8
    50203a6c:	853e                	mv	a0,a5
    50203a6e:	cb8ff0ef          	jal	ra,50202f26 <list_is_empty>
    50203a72:	87aa                	mv	a5,a0
    50203a74:	ef89                	bnez	a5,50203a8e <do_semaphore_up+0x86>
    50203a76:	00007717          	auipc	a4,0x7
    50203a7a:	b4270713          	addi	a4,a4,-1214 # 5020a5b8 <sema>
    50203a7e:	fec42783          	lw	a5,-20(s0)
    50203a82:	0796                	slli	a5,a5,0x5
    50203a84:	97ba                	add	a5,a5,a4
    50203a86:	679c                	ld	a5,8(a5)
    50203a88:	853e                	mv	a0,a5
    50203a8a:	18c010ef          	jal	ra,50204c16 <do_unblock>
    50203a8e:	fec42783          	lw	a5,-20(s0)
    50203a92:	00579713          	slli	a4,a5,0x5
    50203a96:	00007797          	auipc	a5,0x7
    50203a9a:	b2278793          	addi	a5,a5,-1246 # 5020a5b8 <sema>
    50203a9e:	97ba                	add	a5,a5,a4
    50203aa0:	853e                	mv	a0,a5
    50203aa2:	e40ff0ef          	jal	ra,502030e2 <spin_lock_release>
    50203aa6:	0001                	nop
    50203aa8:	60e2                	ld	ra,24(sp)
    50203aaa:	6442                	ld	s0,16(sp)
    50203aac:	6105                	addi	sp,sp,32
    50203aae:	8082                	ret

0000000050203ab0 <do_semaphore_destroy>:
    50203ab0:	1101                	addi	sp,sp,-32
    50203ab2:	ec06                	sd	ra,24(sp)
    50203ab4:	e822                	sd	s0,16(sp)
    50203ab6:	1000                	addi	s0,sp,32
    50203ab8:	87aa                	mv	a5,a0
    50203aba:	fef42623          	sw	a5,-20(s0)
    50203abe:	fec42783          	lw	a5,-20(s0)
    50203ac2:	00579713          	slli	a4,a5,0x5
    50203ac6:	00007797          	auipc	a5,0x7
    50203aca:	af278793          	addi	a5,a5,-1294 # 5020a5b8 <sema>
    50203ace:	97ba                	add	a5,a5,a4
    50203ad0:	853e                	mv	a0,a5
    50203ad2:	dd6ff0ef          	jal	ra,502030a8 <spin_lock_acquire>
    50203ad6:	a829                	j	50203af0 <do_semaphore_destroy+0x40>
    50203ad8:	00007717          	auipc	a4,0x7
    50203adc:	ae070713          	addi	a4,a4,-1312 # 5020a5b8 <sema>
    50203ae0:	fec42783          	lw	a5,-20(s0)
    50203ae4:	0796                	slli	a5,a5,0x5
    50203ae6:	97ba                	add	a5,a5,a4
    50203ae8:	679c                	ld	a5,8(a5)
    50203aea:	853e                	mv	a0,a5
    50203aec:	12a010ef          	jal	ra,50204c16 <do_unblock>
    50203af0:	fec42783          	lw	a5,-20(s0)
    50203af4:	00579713          	slli	a4,a5,0x5
    50203af8:	00007797          	auipc	a5,0x7
    50203afc:	ac078793          	addi	a5,a5,-1344 # 5020a5b8 <sema>
    50203b00:	97ba                	add	a5,a5,a4
    50203b02:	07a1                	addi	a5,a5,8
    50203b04:	853e                	mv	a0,a5
    50203b06:	c20ff0ef          	jal	ra,50202f26 <list_is_empty>
    50203b0a:	87aa                	mv	a5,a0
    50203b0c:	d7f1                	beqz	a5,50203ad8 <do_semaphore_destroy+0x28>
    50203b0e:	00007717          	auipc	a4,0x7
    50203b12:	aaa70713          	addi	a4,a4,-1366 # 5020a5b8 <sema>
    50203b16:	fec42783          	lw	a5,-20(s0)
    50203b1a:	0796                	slli	a5,a5,0x5
    50203b1c:	97ba                	add	a5,a5,a4
    50203b1e:	0007ac23          	sw	zero,24(a5)
    50203b22:	fec42783          	lw	a5,-20(s0)
    50203b26:	00579713          	slli	a4,a5,0x5
    50203b2a:	00007797          	auipc	a5,0x7
    50203b2e:	a8e78793          	addi	a5,a5,-1394 # 5020a5b8 <sema>
    50203b32:	97ba                	add	a5,a5,a4
    50203b34:	853e                	mv	a0,a5
    50203b36:	dacff0ef          	jal	ra,502030e2 <spin_lock_release>
    50203b3a:	0001                	nop
    50203b3c:	60e2                	ld	ra,24(sp)
    50203b3e:	6442                	ld	s0,16(sp)
    50203b40:	6105                	addi	sp,sp,32
    50203b42:	8082                	ret

0000000050203b44 <init_mbox>:
    50203b44:	1101                	addi	sp,sp,-32
    50203b46:	ec06                	sd	ra,24(sp)
    50203b48:	e822                	sd	s0,16(sp)
    50203b4a:	1000                	addi	s0,sp,32
    50203b4c:	fe042623          	sw	zero,-20(s0)
    50203b50:	a851                	j	50203be4 <init_mbox+0xa0>
    50203b52:	fec42703          	lw	a4,-20(s0)
    50203b56:	87ba                	mv	a5,a4
    50203b58:	0792                	slli	a5,a5,0x4
    50203b5a:	97ba                	add	a5,a5,a4
    50203b5c:	078e                	slli	a5,a5,0x3
    50203b5e:	00006717          	auipc	a4,0x6
    50203b62:	ada70713          	addi	a4,a4,-1318 # 50209638 <mbox>
    50203b66:	97ba                	add	a5,a5,a4
    50203b68:	853e                	mv	a0,a5
    50203b6a:	cd6ff0ef          	jal	ra,50203040 <spin_lock_init>
    50203b6e:	00006697          	auipc	a3,0x6
    50203b72:	aca68693          	addi	a3,a3,-1334 # 50209638 <mbox>
    50203b76:	fec42703          	lw	a4,-20(s0)
    50203b7a:	87ba                	mv	a5,a4
    50203b7c:	0792                	slli	a5,a5,0x4
    50203b7e:	97ba                	add	a5,a5,a4
    50203b80:	078e                	slli	a5,a5,0x3
    50203b82:	97b6                	add	a5,a5,a3
    50203b84:	0607ae23          	sw	zero,124(a5)
    50203b88:	00006697          	auipc	a3,0x6
    50203b8c:	ab068693          	addi	a3,a3,-1360 # 50209638 <mbox>
    50203b90:	fec42703          	lw	a4,-20(s0)
    50203b94:	87ba                	mv	a5,a4
    50203b96:	0792                	slli	a5,a5,0x4
    50203b98:	97ba                	add	a5,a5,a4
    50203b9a:	078e                	slli	a5,a5,0x3
    50203b9c:	97b6                	add	a5,a5,a3
    50203b9e:	0807a023          	sw	zero,128(a5)
    50203ba2:	fec42703          	lw	a4,-20(s0)
    50203ba6:	87ba                	mv	a5,a4
    50203ba8:	0792                	slli	a5,a5,0x4
    50203baa:	97ba                	add	a5,a5,a4
    50203bac:	078e                	slli	a5,a5,0x3
    50203bae:	00006717          	auipc	a4,0x6
    50203bb2:	a8a70713          	addi	a4,a4,-1398 # 50209638 <mbox>
    50203bb6:	97ba                	add	a5,a5,a4
    50203bb8:	07a1                	addi	a5,a5,8
    50203bba:	853e                	mv	a0,a5
    50203bbc:	b94ff0ef          	jal	ra,50202f50 <list_init>
    50203bc0:	00006697          	auipc	a3,0x6
    50203bc4:	a7868693          	addi	a3,a3,-1416 # 50209638 <mbox>
    50203bc8:	fec42703          	lw	a4,-20(s0)
    50203bcc:	87ba                	mv	a5,a4
    50203bce:	0792                	slli	a5,a5,0x4
    50203bd0:	97ba                	add	a5,a5,a4
    50203bd2:	078e                	slli	a5,a5,0x3
    50203bd4:	97b6                	add	a5,a5,a3
    50203bd6:	0607ac23          	sw	zero,120(a5)
    50203bda:	fec42783          	lw	a5,-20(s0)
    50203bde:	2785                	addiw	a5,a5,1
    50203be0:	fef42623          	sw	a5,-20(s0)
    50203be4:	fec42783          	lw	a5,-20(s0)
    50203be8:	0007871b          	sext.w	a4,a5
    50203bec:	47bd                	li	a5,15
    50203bee:	f6e7d2e3          	bge	a5,a4,50203b52 <init_mbox+0xe>
    50203bf2:	0001                	nop
    50203bf4:	0001                	nop
    50203bf6:	60e2                	ld	ra,24(sp)
    50203bf8:	6442                	ld	s0,16(sp)
    50203bfa:	6105                	addi	sp,sp,32
    50203bfc:	8082                	ret

0000000050203bfe <do_mbox_open>:
    50203bfe:	7179                	addi	sp,sp,-48
    50203c00:	f406                	sd	ra,40(sp)
    50203c02:	f022                	sd	s0,32(sp)
    50203c04:	1800                	addi	s0,sp,48
    50203c06:	fca43c23          	sd	a0,-40(s0)
    50203c0a:	fe042623          	sw	zero,-20(s0)
    50203c0e:	a0d9                	j	50203cd4 <do_mbox_open+0xd6>
    50203c10:	fec42703          	lw	a4,-20(s0)
    50203c14:	87ba                	mv	a5,a4
    50203c16:	0792                	slli	a5,a5,0x4
    50203c18:	97ba                	add	a5,a5,a4
    50203c1a:	078e                	slli	a5,a5,0x3
    50203c1c:	00006717          	auipc	a4,0x6
    50203c20:	a1c70713          	addi	a4,a4,-1508 # 50209638 <mbox>
    50203c24:	97ba                	add	a5,a5,a4
    50203c26:	853e                	mv	a0,a5
    50203c28:	c80ff0ef          	jal	ra,502030a8 <spin_lock_acquire>
    50203c2c:	fec42703          	lw	a4,-20(s0)
    50203c30:	87ba                	mv	a5,a4
    50203c32:	0792                	slli	a5,a5,0x4
    50203c34:	97ba                	add	a5,a5,a4
    50203c36:	078e                	slli	a5,a5,0x3
    50203c38:	01078713          	addi	a4,a5,16
    50203c3c:	00006797          	auipc	a5,0x6
    50203c40:	9fc78793          	addi	a5,a5,-1540 # 50209638 <mbox>
    50203c44:	97ba                	add	a5,a5,a4
    50203c46:	07a1                	addi	a5,a5,8
    50203c48:	85be                	mv	a1,a5
    50203c4a:	fd843503          	ld	a0,-40(s0)
    50203c4e:	3fd020ef          	jal	ra,5020684a <strcmp>
    50203c52:	87aa                	mv	a5,a0
    50203c54:	efa9                	bnez	a5,50203cae <do_mbox_open+0xb0>
    50203c56:	00006697          	auipc	a3,0x6
    50203c5a:	9e268693          	addi	a3,a3,-1566 # 50209638 <mbox>
    50203c5e:	fec42703          	lw	a4,-20(s0)
    50203c62:	87ba                	mv	a5,a4
    50203c64:	0792                	slli	a5,a5,0x4
    50203c66:	97ba                	add	a5,a5,a4
    50203c68:	078e                	slli	a5,a5,0x3
    50203c6a:	97b6                	add	a5,a5,a3
    50203c6c:	5fbc                	lw	a5,120(a5)
    50203c6e:	2785                	addiw	a5,a5,1
    50203c70:	0007869b          	sext.w	a3,a5
    50203c74:	00006617          	auipc	a2,0x6
    50203c78:	9c460613          	addi	a2,a2,-1596 # 50209638 <mbox>
    50203c7c:	fec42703          	lw	a4,-20(s0)
    50203c80:	87ba                	mv	a5,a4
    50203c82:	0792                	slli	a5,a5,0x4
    50203c84:	97ba                	add	a5,a5,a4
    50203c86:	078e                	slli	a5,a5,0x3
    50203c88:	97b2                	add	a5,a5,a2
    50203c8a:	dfb4                	sw	a3,120(a5)
    50203c8c:	fec42703          	lw	a4,-20(s0)
    50203c90:	87ba                	mv	a5,a4
    50203c92:	0792                	slli	a5,a5,0x4
    50203c94:	97ba                	add	a5,a5,a4
    50203c96:	078e                	slli	a5,a5,0x3
    50203c98:	00006717          	auipc	a4,0x6
    50203c9c:	9a070713          	addi	a4,a4,-1632 # 50209638 <mbox>
    50203ca0:	97ba                	add	a5,a5,a4
    50203ca2:	853e                	mv	a0,a5
    50203ca4:	c3eff0ef          	jal	ra,502030e2 <spin_lock_release>
    50203ca8:	fec42783          	lw	a5,-20(s0)
    50203cac:	a2e1                	j	50203e74 <do_mbox_open+0x276>
    50203cae:	fec42703          	lw	a4,-20(s0)
    50203cb2:	87ba                	mv	a5,a4
    50203cb4:	0792                	slli	a5,a5,0x4
    50203cb6:	97ba                	add	a5,a5,a4
    50203cb8:	078e                	slli	a5,a5,0x3
    50203cba:	00006717          	auipc	a4,0x6
    50203cbe:	97e70713          	addi	a4,a4,-1666 # 50209638 <mbox>
    50203cc2:	97ba                	add	a5,a5,a4
    50203cc4:	853e                	mv	a0,a5
    50203cc6:	c1cff0ef          	jal	ra,502030e2 <spin_lock_release>
    50203cca:	fec42783          	lw	a5,-20(s0)
    50203cce:	2785                	addiw	a5,a5,1
    50203cd0:	fef42623          	sw	a5,-20(s0)
    50203cd4:	fec42783          	lw	a5,-20(s0)
    50203cd8:	0007871b          	sext.w	a4,a5
    50203cdc:	47bd                	li	a5,15
    50203cde:	f2e7d9e3          	bge	a5,a4,50203c10 <do_mbox_open+0x12>
    50203ce2:	fe042423          	sw	zero,-24(s0)
    50203ce6:	aabd                	j	50203e64 <do_mbox_open+0x266>
    50203ce8:	fe842703          	lw	a4,-24(s0)
    50203cec:	87ba                	mv	a5,a4
    50203cee:	0792                	slli	a5,a5,0x4
    50203cf0:	97ba                	add	a5,a5,a4
    50203cf2:	078e                	slli	a5,a5,0x3
    50203cf4:	00006717          	auipc	a4,0x6
    50203cf8:	94470713          	addi	a4,a4,-1724 # 50209638 <mbox>
    50203cfc:	97ba                	add	a5,a5,a4
    50203cfe:	853e                	mv	a0,a5
    50203d00:	ba8ff0ef          	jal	ra,502030a8 <spin_lock_acquire>
    50203d04:	00006697          	auipc	a3,0x6
    50203d08:	93468693          	addi	a3,a3,-1740 # 50209638 <mbox>
    50203d0c:	fe842703          	lw	a4,-24(s0)
    50203d10:	87ba                	mv	a5,a4
    50203d12:	0792                	slli	a5,a5,0x4
    50203d14:	97ba                	add	a5,a5,a4
    50203d16:	078e                	slli	a5,a5,0x3
    50203d18:	97b6                	add	a5,a5,a3
    50203d1a:	5fbc                	lw	a5,120(a5)
    50203d1c:	12079163          	bnez	a5,50203e3e <do_mbox_open+0x240>
    50203d20:	fe842703          	lw	a4,-24(s0)
    50203d24:	87ba                	mv	a5,a4
    50203d26:	0792                	slli	a5,a5,0x4
    50203d28:	97ba                	add	a5,a5,a4
    50203d2a:	078e                	slli	a5,a5,0x3
    50203d2c:	01078713          	addi	a4,a5,16
    50203d30:	00006797          	auipc	a5,0x6
    50203d34:	90878793          	addi	a5,a5,-1784 # 50209638 <mbox>
    50203d38:	97ba                	add	a5,a5,a4
    50203d3a:	07a1                	addi	a5,a5,8
    50203d3c:	fd843583          	ld	a1,-40(s0)
    50203d40:	853e                	mv	a0,a5
    50203d42:	421020ef          	jal	ra,50206962 <strcpy>
    50203d46:	00006697          	auipc	a3,0x6
    50203d4a:	8f268693          	addi	a3,a3,-1806 # 50209638 <mbox>
    50203d4e:	fe842703          	lw	a4,-24(s0)
    50203d52:	87ba                	mv	a5,a4
    50203d54:	0792                	slli	a5,a5,0x4
    50203d56:	97ba                	add	a5,a5,a4
    50203d58:	078e                	slli	a5,a5,0x3
    50203d5a:	97b6                	add	a5,a5,a3
    50203d5c:	5fbc                	lw	a5,120(a5)
    50203d5e:	2785                	addiw	a5,a5,1
    50203d60:	0007869b          	sext.w	a3,a5
    50203d64:	00006617          	auipc	a2,0x6
    50203d68:	8d460613          	addi	a2,a2,-1836 # 50209638 <mbox>
    50203d6c:	fe842703          	lw	a4,-24(s0)
    50203d70:	87ba                	mv	a5,a4
    50203d72:	0792                	slli	a5,a5,0x4
    50203d74:	97ba                	add	a5,a5,a4
    50203d76:	078e                	slli	a5,a5,0x3
    50203d78:	97b2                	add	a5,a5,a2
    50203d7a:	dfb4                	sw	a3,120(a5)
    50203d7c:	00006697          	auipc	a3,0x6
    50203d80:	8bc68693          	addi	a3,a3,-1860 # 50209638 <mbox>
    50203d84:	fe842703          	lw	a4,-24(s0)
    50203d88:	87ba                	mv	a5,a4
    50203d8a:	0792                	slli	a5,a5,0x4
    50203d8c:	97ba                	add	a5,a5,a4
    50203d8e:	078e                	slli	a5,a5,0x3
    50203d90:	97b6                	add	a5,a5,a3
    50203d92:	5ffc                	lw	a5,124(a5)
    50203d94:	cf89                	beqz	a5,50203dae <do_mbox_open+0x1b0>
    50203d96:	00003617          	auipc	a2,0x3
    50203d9a:	2a260613          	addi	a2,a2,674 # 50207038 <__FUNCTION__.1397>
    50203d9e:	10f00593          	li	a1,271
    50203da2:	00003517          	auipc	a0,0x3
    50203da6:	27e50513          	addi	a0,a0,638 # 50207020 <__FUNCTION__.1484+0x38>
    50203daa:	9ccff0ef          	jal	ra,50202f76 <_panic>
    50203dae:	00006697          	auipc	a3,0x6
    50203db2:	88a68693          	addi	a3,a3,-1910 # 50209638 <mbox>
    50203db6:	fe842703          	lw	a4,-24(s0)
    50203dba:	87ba                	mv	a5,a4
    50203dbc:	0792                	slli	a5,a5,0x4
    50203dbe:	97ba                	add	a5,a5,a4
    50203dc0:	078e                	slli	a5,a5,0x3
    50203dc2:	97b6                	add	a5,a5,a3
    50203dc4:	0807a783          	lw	a5,128(a5)
    50203dc8:	cf89                	beqz	a5,50203de2 <do_mbox_open+0x1e4>
    50203dca:	00003617          	auipc	a2,0x3
    50203dce:	26e60613          	addi	a2,a2,622 # 50207038 <__FUNCTION__.1397>
    50203dd2:	11000593          	li	a1,272
    50203dd6:	00003517          	auipc	a0,0x3
    50203dda:	24a50513          	addi	a0,a0,586 # 50207020 <__FUNCTION__.1484+0x38>
    50203dde:	998ff0ef          	jal	ra,50202f76 <_panic>
    50203de2:	fe842703          	lw	a4,-24(s0)
    50203de6:	87ba                	mv	a5,a4
    50203de8:	0792                	slli	a5,a5,0x4
    50203dea:	97ba                	add	a5,a5,a4
    50203dec:	078e                	slli	a5,a5,0x3
    50203dee:	00006717          	auipc	a4,0x6
    50203df2:	84a70713          	addi	a4,a4,-1974 # 50209638 <mbox>
    50203df6:	97ba                	add	a5,a5,a4
    50203df8:	07a1                	addi	a5,a5,8
    50203dfa:	853e                	mv	a0,a5
    50203dfc:	92aff0ef          	jal	ra,50202f26 <list_is_empty>
    50203e00:	87aa                	mv	a5,a0
    50203e02:	ef89                	bnez	a5,50203e1c <do_mbox_open+0x21e>
    50203e04:	00003617          	auipc	a2,0x3
    50203e08:	23460613          	addi	a2,a2,564 # 50207038 <__FUNCTION__.1397>
    50203e0c:	11100593          	li	a1,273
    50203e10:	00003517          	auipc	a0,0x3
    50203e14:	21050513          	addi	a0,a0,528 # 50207020 <__FUNCTION__.1484+0x38>
    50203e18:	95eff0ef          	jal	ra,50202f76 <_panic>
    50203e1c:	fe842703          	lw	a4,-24(s0)
    50203e20:	87ba                	mv	a5,a4
    50203e22:	0792                	slli	a5,a5,0x4
    50203e24:	97ba                	add	a5,a5,a4
    50203e26:	078e                	slli	a5,a5,0x3
    50203e28:	00006717          	auipc	a4,0x6
    50203e2c:	81070713          	addi	a4,a4,-2032 # 50209638 <mbox>
    50203e30:	97ba                	add	a5,a5,a4
    50203e32:	853e                	mv	a0,a5
    50203e34:	aaeff0ef          	jal	ra,502030e2 <spin_lock_release>
    50203e38:	fe842783          	lw	a5,-24(s0)
    50203e3c:	a825                	j	50203e74 <do_mbox_open+0x276>
    50203e3e:	fe842703          	lw	a4,-24(s0)
    50203e42:	87ba                	mv	a5,a4
    50203e44:	0792                	slli	a5,a5,0x4
    50203e46:	97ba                	add	a5,a5,a4
    50203e48:	078e                	slli	a5,a5,0x3
    50203e4a:	00005717          	auipc	a4,0x5
    50203e4e:	7ee70713          	addi	a4,a4,2030 # 50209638 <mbox>
    50203e52:	97ba                	add	a5,a5,a4
    50203e54:	853e                	mv	a0,a5
    50203e56:	a8cff0ef          	jal	ra,502030e2 <spin_lock_release>
    50203e5a:	fe842783          	lw	a5,-24(s0)
    50203e5e:	2785                	addiw	a5,a5,1
    50203e60:	fef42423          	sw	a5,-24(s0)
    50203e64:	fe842783          	lw	a5,-24(s0)
    50203e68:	0007871b          	sext.w	a4,a5
    50203e6c:	47bd                	li	a5,15
    50203e6e:	e6e7dde3          	bge	a5,a4,50203ce8 <do_mbox_open+0xea>
    50203e72:	57fd                	li	a5,-1
    50203e74:	853e                	mv	a0,a5
    50203e76:	70a2                	ld	ra,40(sp)
    50203e78:	7402                	ld	s0,32(sp)
    50203e7a:	6145                	addi	sp,sp,48
    50203e7c:	8082                	ret

0000000050203e7e <do_mbox_close>:
    50203e7e:	1101                	addi	sp,sp,-32
    50203e80:	ec06                	sd	ra,24(sp)
    50203e82:	e822                	sd	s0,16(sp)
    50203e84:	1000                	addi	s0,sp,32
    50203e86:	87aa                	mv	a5,a0
    50203e88:	fef42623          	sw	a5,-20(s0)
    50203e8c:	fec42703          	lw	a4,-20(s0)
    50203e90:	87ba                	mv	a5,a4
    50203e92:	0792                	slli	a5,a5,0x4
    50203e94:	97ba                	add	a5,a5,a4
    50203e96:	078e                	slli	a5,a5,0x3
    50203e98:	00005717          	auipc	a4,0x5
    50203e9c:	7a070713          	addi	a4,a4,1952 # 50209638 <mbox>
    50203ea0:	97ba                	add	a5,a5,a4
    50203ea2:	853e                	mv	a0,a5
    50203ea4:	a04ff0ef          	jal	ra,502030a8 <spin_lock_acquire>
    50203ea8:	00005697          	auipc	a3,0x5
    50203eac:	79068693          	addi	a3,a3,1936 # 50209638 <mbox>
    50203eb0:	fec42703          	lw	a4,-20(s0)
    50203eb4:	87ba                	mv	a5,a4
    50203eb6:	0792                	slli	a5,a5,0x4
    50203eb8:	97ba                	add	a5,a5,a4
    50203eba:	078e                	slli	a5,a5,0x3
    50203ebc:	97b6                	add	a5,a5,a3
    50203ebe:	0607ac23          	sw	zero,120(a5)
    50203ec2:	a005                	j	50203ee2 <do_mbox_close+0x64>
    50203ec4:	00005697          	auipc	a3,0x5
    50203ec8:	77468693          	addi	a3,a3,1908 # 50209638 <mbox>
    50203ecc:	fec42703          	lw	a4,-20(s0)
    50203ed0:	87ba                	mv	a5,a4
    50203ed2:	0792                	slli	a5,a5,0x4
    50203ed4:	97ba                	add	a5,a5,a4
    50203ed6:	078e                	slli	a5,a5,0x3
    50203ed8:	97b6                	add	a5,a5,a3
    50203eda:	679c                	ld	a5,8(a5)
    50203edc:	853e                	mv	a0,a5
    50203ede:	539000ef          	jal	ra,50204c16 <do_unblock>
    50203ee2:	fec42703          	lw	a4,-20(s0)
    50203ee6:	87ba                	mv	a5,a4
    50203ee8:	0792                	slli	a5,a5,0x4
    50203eea:	97ba                	add	a5,a5,a4
    50203eec:	078e                	slli	a5,a5,0x3
    50203eee:	00005717          	auipc	a4,0x5
    50203ef2:	74a70713          	addi	a4,a4,1866 # 50209638 <mbox>
    50203ef6:	97ba                	add	a5,a5,a4
    50203ef8:	07a1                	addi	a5,a5,8
    50203efa:	853e                	mv	a0,a5
    50203efc:	82aff0ef          	jal	ra,50202f26 <list_is_empty>
    50203f00:	87aa                	mv	a5,a0
    50203f02:	d3e9                	beqz	a5,50203ec4 <do_mbox_close+0x46>
    50203f04:	00005697          	auipc	a3,0x5
    50203f08:	73468693          	addi	a3,a3,1844 # 50209638 <mbox>
    50203f0c:	fec42703          	lw	a4,-20(s0)
    50203f10:	87ba                	mv	a5,a4
    50203f12:	0792                	slli	a5,a5,0x4
    50203f14:	97ba                	add	a5,a5,a4
    50203f16:	078e                	slli	a5,a5,0x3
    50203f18:	97b6                	add	a5,a5,a3
    50203f1a:	0607ae23          	sw	zero,124(a5)
    50203f1e:	00005697          	auipc	a3,0x5
    50203f22:	71a68693          	addi	a3,a3,1818 # 50209638 <mbox>
    50203f26:	fec42703          	lw	a4,-20(s0)
    50203f2a:	87ba                	mv	a5,a4
    50203f2c:	0792                	slli	a5,a5,0x4
    50203f2e:	97ba                	add	a5,a5,a4
    50203f30:	078e                	slli	a5,a5,0x3
    50203f32:	97b6                	add	a5,a5,a3
    50203f34:	0807a023          	sw	zero,128(a5)
    50203f38:	fec42703          	lw	a4,-20(s0)
    50203f3c:	87ba                	mv	a5,a4
    50203f3e:	0792                	slli	a5,a5,0x4
    50203f40:	97ba                	add	a5,a5,a4
    50203f42:	078e                	slli	a5,a5,0x3
    50203f44:	00005717          	auipc	a4,0x5
    50203f48:	6f470713          	addi	a4,a4,1780 # 50209638 <mbox>
    50203f4c:	97ba                	add	a5,a5,a4
    50203f4e:	853e                	mv	a0,a5
    50203f50:	992ff0ef          	jal	ra,502030e2 <spin_lock_release>
    50203f54:	0001                	nop
    50203f56:	60e2                	ld	ra,24(sp)
    50203f58:	6442                	ld	s0,16(sp)
    50203f5a:	6105                	addi	sp,sp,32
    50203f5c:	8082                	ret

0000000050203f5e <do_mbox_send>:
    50203f5e:	7179                	addi	sp,sp,-48
    50203f60:	f406                	sd	ra,40(sp)
    50203f62:	f022                	sd	s0,32(sp)
    50203f64:	1800                	addi	s0,sp,48
    50203f66:	87aa                	mv	a5,a0
    50203f68:	fcb43823          	sd	a1,-48(s0)
    50203f6c:	8732                	mv	a4,a2
    50203f6e:	fcf42e23          	sw	a5,-36(s0)
    50203f72:	87ba                	mv	a5,a4
    50203f74:	fcf42c23          	sw	a5,-40(s0)
    50203f78:	fdc42703          	lw	a4,-36(s0)
    50203f7c:	87ba                	mv	a5,a4
    50203f7e:	0792                	slli	a5,a5,0x4
    50203f80:	97ba                	add	a5,a5,a4
    50203f82:	078e                	slli	a5,a5,0x3
    50203f84:	00005717          	auipc	a4,0x5
    50203f88:	6b470713          	addi	a4,a4,1716 # 50209638 <mbox>
    50203f8c:	97ba                	add	a5,a5,a4
    50203f8e:	853e                	mv	a0,a5
    50203f90:	918ff0ef          	jal	ra,502030a8 <spin_lock_acquire>
    50203f94:	fdc42783          	lw	a5,-36(s0)
    50203f98:	2781                	sext.w	a5,a5
    50203f9a:	0007c963          	bltz	a5,50203fac <do_mbox_send+0x4e>
    50203f9e:	fdc42783          	lw	a5,-36(s0)
    50203fa2:	0007871b          	sext.w	a4,a5
    50203fa6:	47bd                	li	a5,15
    50203fa8:	02e7d263          	bge	a5,a4,50203fcc <do_mbox_send+0x6e>
    50203fac:	fdc42703          	lw	a4,-36(s0)
    50203fb0:	87ba                	mv	a5,a4
    50203fb2:	0792                	slli	a5,a5,0x4
    50203fb4:	97ba                	add	a5,a5,a4
    50203fb6:	078e                	slli	a5,a5,0x3
    50203fb8:	00005717          	auipc	a4,0x5
    50203fbc:	68070713          	addi	a4,a4,1664 # 50209638 <mbox>
    50203fc0:	97ba                	add	a5,a5,a4
    50203fc2:	853e                	mv	a0,a5
    50203fc4:	91eff0ef          	jal	ra,502030e2 <spin_lock_release>
    50203fc8:	57fd                	li	a5,-1
    50203fca:	aa75                	j	50204186 <do_mbox_send+0x228>
    50203fcc:	fe042623          	sw	zero,-20(s0)
    50203fd0:	a8b1                	j	5020402c <do_mbox_send+0xce>
    50203fd2:	fec42783          	lw	a5,-20(s0)
    50203fd6:	2785                	addiw	a5,a5,1
    50203fd8:	fef42623          	sw	a5,-20(s0)
    50203fdc:	a08fd0ef          	jal	ra,502011e4 <get_current_cpu_id>
    50203fe0:	87aa                	mv	a5,a0
    50203fe2:	00005717          	auipc	a4,0x5
    50203fe6:	50e70713          	addi	a4,a4,1294 # 502094f0 <current_running>
    50203fea:	078e                	slli	a5,a5,0x3
    50203fec:	97ba                	add	a5,a5,a4
    50203fee:	639c                	ld	a5,0(a5)
    50203ff0:	02078693          	addi	a3,a5,32
    50203ff4:	fdc42703          	lw	a4,-36(s0)
    50203ff8:	87ba                	mv	a5,a4
    50203ffa:	0792                	slli	a5,a5,0x4
    50203ffc:	97ba                	add	a5,a5,a4
    50203ffe:	078e                	slli	a5,a5,0x3
    50204000:	00005717          	auipc	a4,0x5
    50204004:	63870713          	addi	a4,a4,1592 # 50209638 <mbox>
    50204008:	97ba                	add	a5,a5,a4
    5020400a:	00878593          	addi	a1,a5,8
    5020400e:	fdc42703          	lw	a4,-36(s0)
    50204012:	87ba                	mv	a5,a4
    50204014:	0792                	slli	a5,a5,0x4
    50204016:	97ba                	add	a5,a5,a4
    50204018:	078e                	slli	a5,a5,0x3
    5020401a:	00005717          	auipc	a4,0x5
    5020401e:	61e70713          	addi	a4,a4,1566 # 50209638 <mbox>
    50204022:	97ba                	add	a5,a5,a4
    50204024:	863e                	mv	a2,a5
    50204026:	8536                	mv	a0,a3
    50204028:	383000ef          	jal	ra,50204baa <do_block>
    5020402c:	00005697          	auipc	a3,0x5
    50204030:	60c68693          	addi	a3,a3,1548 # 50209638 <mbox>
    50204034:	fdc42703          	lw	a4,-36(s0)
    50204038:	87ba                	mv	a5,a4
    5020403a:	0792                	slli	a5,a5,0x4
    5020403c:	97ba                	add	a5,a5,a4
    5020403e:	078e                	slli	a5,a5,0x3
    50204040:	97b6                	add	a5,a5,a3
    50204042:	0807a683          	lw	a3,128(a5)
    50204046:	00005617          	auipc	a2,0x5
    5020404a:	5f260613          	addi	a2,a2,1522 # 50209638 <mbox>
    5020404e:	fdc42703          	lw	a4,-36(s0)
    50204052:	87ba                	mv	a5,a4
    50204054:	0792                	slli	a5,a5,0x4
    50204056:	97ba                	add	a5,a5,a4
    50204058:	078e                	slli	a5,a5,0x3
    5020405a:	97b2                	add	a5,a5,a2
    5020405c:	5ffc                	lw	a5,124(a5)
    5020405e:	40f687bb          	subw	a5,a3,a5
    50204062:	2781                	sext.w	a5,a5
    50204064:	fd842703          	lw	a4,-40(s0)
    50204068:	9fb9                	addw	a5,a5,a4
    5020406a:	2781                	sext.w	a5,a5
    5020406c:	873e                	mv	a4,a5
    5020406e:	04000793          	li	a5,64
    50204072:	f6e7c0e3          	blt	a5,a4,50203fd2 <do_mbox_send+0x74>
    50204076:	fe042423          	sw	zero,-24(s0)
    5020407a:	a869                	j	50204114 <do_mbox_send+0x1b6>
    5020407c:	fe842783          	lw	a5,-24(s0)
    50204080:	fd043703          	ld	a4,-48(s0)
    50204084:	00f706b3          	add	a3,a4,a5
    50204088:	00005617          	auipc	a2,0x5
    5020408c:	5b060613          	addi	a2,a2,1456 # 50209638 <mbox>
    50204090:	fdc42703          	lw	a4,-36(s0)
    50204094:	87ba                	mv	a5,a4
    50204096:	0792                	slli	a5,a5,0x4
    50204098:	97ba                	add	a5,a5,a4
    5020409a:	078e                	slli	a5,a5,0x3
    5020409c:	97b2                	add	a5,a5,a2
    5020409e:	0807a783          	lw	a5,128(a5)
    502040a2:	873e                	mv	a4,a5
    502040a4:	04100793          	li	a5,65
    502040a8:	02f767bb          	remw	a5,a4,a5
    502040ac:	0007861b          	sext.w	a2,a5
    502040b0:	0006c683          	lbu	a3,0(a3)
    502040b4:	00005597          	auipc	a1,0x5
    502040b8:	58458593          	addi	a1,a1,1412 # 50209638 <mbox>
    502040bc:	fdc42703          	lw	a4,-36(s0)
    502040c0:	87ba                	mv	a5,a4
    502040c2:	0792                	slli	a5,a5,0x4
    502040c4:	97ba                	add	a5,a5,a4
    502040c6:	078e                	slli	a5,a5,0x3
    502040c8:	97ae                	add	a5,a5,a1
    502040ca:	97b2                	add	a5,a5,a2
    502040cc:	02d78c23          	sb	a3,56(a5)
    502040d0:	00005697          	auipc	a3,0x5
    502040d4:	56868693          	addi	a3,a3,1384 # 50209638 <mbox>
    502040d8:	fdc42703          	lw	a4,-36(s0)
    502040dc:	87ba                	mv	a5,a4
    502040de:	0792                	slli	a5,a5,0x4
    502040e0:	97ba                	add	a5,a5,a4
    502040e2:	078e                	slli	a5,a5,0x3
    502040e4:	97b6                	add	a5,a5,a3
    502040e6:	0807a783          	lw	a5,128(a5)
    502040ea:	2785                	addiw	a5,a5,1
    502040ec:	0007869b          	sext.w	a3,a5
    502040f0:	00005617          	auipc	a2,0x5
    502040f4:	54860613          	addi	a2,a2,1352 # 50209638 <mbox>
    502040f8:	fdc42703          	lw	a4,-36(s0)
    502040fc:	87ba                	mv	a5,a4
    502040fe:	0792                	slli	a5,a5,0x4
    50204100:	97ba                	add	a5,a5,a4
    50204102:	078e                	slli	a5,a5,0x3
    50204104:	97b2                	add	a5,a5,a2
    50204106:	08d7a023          	sw	a3,128(a5)
    5020410a:	fe842783          	lw	a5,-24(s0)
    5020410e:	2785                	addiw	a5,a5,1
    50204110:	fef42423          	sw	a5,-24(s0)
    50204114:	fe842703          	lw	a4,-24(s0)
    50204118:	fd842783          	lw	a5,-40(s0)
    5020411c:	2701                	sext.w	a4,a4
    5020411e:	2781                	sext.w	a5,a5
    50204120:	f4f74ee3          	blt	a4,a5,5020407c <do_mbox_send+0x11e>
    50204124:	a005                	j	50204144 <do_mbox_send+0x1e6>
    50204126:	00005697          	auipc	a3,0x5
    5020412a:	51268693          	addi	a3,a3,1298 # 50209638 <mbox>
    5020412e:	fdc42703          	lw	a4,-36(s0)
    50204132:	87ba                	mv	a5,a4
    50204134:	0792                	slli	a5,a5,0x4
    50204136:	97ba                	add	a5,a5,a4
    50204138:	078e                	slli	a5,a5,0x3
    5020413a:	97b6                	add	a5,a5,a3
    5020413c:	679c                	ld	a5,8(a5)
    5020413e:	853e                	mv	a0,a5
    50204140:	2d7000ef          	jal	ra,50204c16 <do_unblock>
    50204144:	fdc42703          	lw	a4,-36(s0)
    50204148:	87ba                	mv	a5,a4
    5020414a:	0792                	slli	a5,a5,0x4
    5020414c:	97ba                	add	a5,a5,a4
    5020414e:	078e                	slli	a5,a5,0x3
    50204150:	00005717          	auipc	a4,0x5
    50204154:	4e870713          	addi	a4,a4,1256 # 50209638 <mbox>
    50204158:	97ba                	add	a5,a5,a4
    5020415a:	07a1                	addi	a5,a5,8
    5020415c:	853e                	mv	a0,a5
    5020415e:	dc9fe0ef          	jal	ra,50202f26 <list_is_empty>
    50204162:	87aa                	mv	a5,a0
    50204164:	d3e9                	beqz	a5,50204126 <do_mbox_send+0x1c8>
    50204166:	fdc42703          	lw	a4,-36(s0)
    5020416a:	87ba                	mv	a5,a4
    5020416c:	0792                	slli	a5,a5,0x4
    5020416e:	97ba                	add	a5,a5,a4
    50204170:	078e                	slli	a5,a5,0x3
    50204172:	00005717          	auipc	a4,0x5
    50204176:	4c670713          	addi	a4,a4,1222 # 50209638 <mbox>
    5020417a:	97ba                	add	a5,a5,a4
    5020417c:	853e                	mv	a0,a5
    5020417e:	f65fe0ef          	jal	ra,502030e2 <spin_lock_release>
    50204182:	fec42783          	lw	a5,-20(s0)
    50204186:	853e                	mv	a0,a5
    50204188:	70a2                	ld	ra,40(sp)
    5020418a:	7402                	ld	s0,32(sp)
    5020418c:	6145                	addi	sp,sp,48
    5020418e:	8082                	ret

0000000050204190 <do_mbox_recv>:
    50204190:	7179                	addi	sp,sp,-48
    50204192:	f406                	sd	ra,40(sp)
    50204194:	f022                	sd	s0,32(sp)
    50204196:	1800                	addi	s0,sp,48
    50204198:	87aa                	mv	a5,a0
    5020419a:	fcb43823          	sd	a1,-48(s0)
    5020419e:	8732                	mv	a4,a2
    502041a0:	fcf42e23          	sw	a5,-36(s0)
    502041a4:	87ba                	mv	a5,a4
    502041a6:	fcf42c23          	sw	a5,-40(s0)
    502041aa:	fdc42703          	lw	a4,-36(s0)
    502041ae:	87ba                	mv	a5,a4
    502041b0:	0792                	slli	a5,a5,0x4
    502041b2:	97ba                	add	a5,a5,a4
    502041b4:	078e                	slli	a5,a5,0x3
    502041b6:	00005717          	auipc	a4,0x5
    502041ba:	48270713          	addi	a4,a4,1154 # 50209638 <mbox>
    502041be:	97ba                	add	a5,a5,a4
    502041c0:	853e                	mv	a0,a5
    502041c2:	ee7fe0ef          	jal	ra,502030a8 <spin_lock_acquire>
    502041c6:	fdc42783          	lw	a5,-36(s0)
    502041ca:	2781                	sext.w	a5,a5
    502041cc:	0007c963          	bltz	a5,502041de <do_mbox_recv+0x4e>
    502041d0:	fdc42783          	lw	a5,-36(s0)
    502041d4:	0007871b          	sext.w	a4,a5
    502041d8:	47bd                	li	a5,15
    502041da:	02e7d263          	bge	a5,a4,502041fe <do_mbox_recv+0x6e>
    502041de:	fdc42703          	lw	a4,-36(s0)
    502041e2:	87ba                	mv	a5,a4
    502041e4:	0792                	slli	a5,a5,0x4
    502041e6:	97ba                	add	a5,a5,a4
    502041e8:	078e                	slli	a5,a5,0x3
    502041ea:	00005717          	auipc	a4,0x5
    502041ee:	44e70713          	addi	a4,a4,1102 # 50209638 <mbox>
    502041f2:	97ba                	add	a5,a5,a4
    502041f4:	853e                	mv	a0,a5
    502041f6:	eedfe0ef          	jal	ra,502030e2 <spin_lock_release>
    502041fa:	57fd                	li	a5,-1
    502041fc:	aa45                	j	502043ac <do_mbox_recv+0x21c>
    502041fe:	fe042623          	sw	zero,-20(s0)
    50204202:	a8b1                	j	5020425e <do_mbox_recv+0xce>
    50204204:	fec42783          	lw	a5,-20(s0)
    50204208:	2785                	addiw	a5,a5,1
    5020420a:	fef42623          	sw	a5,-20(s0)
    5020420e:	fd7fc0ef          	jal	ra,502011e4 <get_current_cpu_id>
    50204212:	87aa                	mv	a5,a0
    50204214:	00005717          	auipc	a4,0x5
    50204218:	2dc70713          	addi	a4,a4,732 # 502094f0 <current_running>
    5020421c:	078e                	slli	a5,a5,0x3
    5020421e:	97ba                	add	a5,a5,a4
    50204220:	639c                	ld	a5,0(a5)
    50204222:	02078693          	addi	a3,a5,32
    50204226:	fdc42703          	lw	a4,-36(s0)
    5020422a:	87ba                	mv	a5,a4
    5020422c:	0792                	slli	a5,a5,0x4
    5020422e:	97ba                	add	a5,a5,a4
    50204230:	078e                	slli	a5,a5,0x3
    50204232:	00005717          	auipc	a4,0x5
    50204236:	40670713          	addi	a4,a4,1030 # 50209638 <mbox>
    5020423a:	97ba                	add	a5,a5,a4
    5020423c:	00878593          	addi	a1,a5,8
    50204240:	fdc42703          	lw	a4,-36(s0)
    50204244:	87ba                	mv	a5,a4
    50204246:	0792                	slli	a5,a5,0x4
    50204248:	97ba                	add	a5,a5,a4
    5020424a:	078e                	slli	a5,a5,0x3
    5020424c:	00005717          	auipc	a4,0x5
    50204250:	3ec70713          	addi	a4,a4,1004 # 50209638 <mbox>
    50204254:	97ba                	add	a5,a5,a4
    50204256:	863e                	mv	a2,a5
    50204258:	8536                	mv	a0,a3
    5020425a:	151000ef          	jal	ra,50204baa <do_block>
    5020425e:	00005697          	auipc	a3,0x5
    50204262:	3da68693          	addi	a3,a3,986 # 50209638 <mbox>
    50204266:	fdc42703          	lw	a4,-36(s0)
    5020426a:	87ba                	mv	a5,a4
    5020426c:	0792                	slli	a5,a5,0x4
    5020426e:	97ba                	add	a5,a5,a4
    50204270:	078e                	slli	a5,a5,0x3
    50204272:	97b6                	add	a5,a5,a3
    50204274:	0807a683          	lw	a3,128(a5)
    50204278:	00005617          	auipc	a2,0x5
    5020427c:	3c060613          	addi	a2,a2,960 # 50209638 <mbox>
    50204280:	fdc42703          	lw	a4,-36(s0)
    50204284:	87ba                	mv	a5,a4
    50204286:	0792                	slli	a5,a5,0x4
    50204288:	97ba                	add	a5,a5,a4
    5020428a:	078e                	slli	a5,a5,0x3
    5020428c:	97b2                	add	a5,a5,a2
    5020428e:	5ffc                	lw	a5,124(a5)
    50204290:	40f687bb          	subw	a5,a3,a5
    50204294:	0007871b          	sext.w	a4,a5
    50204298:	fd842783          	lw	a5,-40(s0)
    5020429c:	2781                	sext.w	a5,a5
    5020429e:	f6f743e3          	blt	a4,a5,50204204 <do_mbox_recv+0x74>
    502042a2:	fe042423          	sw	zero,-24(s0)
    502042a6:	a851                	j	5020433a <do_mbox_recv+0x1aa>
    502042a8:	00005697          	auipc	a3,0x5
    502042ac:	39068693          	addi	a3,a3,912 # 50209638 <mbox>
    502042b0:	fdc42703          	lw	a4,-36(s0)
    502042b4:	87ba                	mv	a5,a4
    502042b6:	0792                	slli	a5,a5,0x4
    502042b8:	97ba                	add	a5,a5,a4
    502042ba:	078e                	slli	a5,a5,0x3
    502042bc:	97b6                	add	a5,a5,a3
    502042be:	5ffc                	lw	a5,124(a5)
    502042c0:	873e                	mv	a4,a5
    502042c2:	04100793          	li	a5,65
    502042c6:	02f767bb          	remw	a5,a4,a5
    502042ca:	0007861b          	sext.w	a2,a5
    502042ce:	fe842783          	lw	a5,-24(s0)
    502042d2:	fd043703          	ld	a4,-48(s0)
    502042d6:	00f706b3          	add	a3,a4,a5
    502042da:	00005597          	auipc	a1,0x5
    502042de:	35e58593          	addi	a1,a1,862 # 50209638 <mbox>
    502042e2:	fdc42703          	lw	a4,-36(s0)
    502042e6:	87ba                	mv	a5,a4
    502042e8:	0792                	slli	a5,a5,0x4
    502042ea:	97ba                	add	a5,a5,a4
    502042ec:	078e                	slli	a5,a5,0x3
    502042ee:	97ae                	add	a5,a5,a1
    502042f0:	97b2                	add	a5,a5,a2
    502042f2:	0387c783          	lbu	a5,56(a5)
    502042f6:	00f68023          	sb	a5,0(a3)
    502042fa:	00005697          	auipc	a3,0x5
    502042fe:	33e68693          	addi	a3,a3,830 # 50209638 <mbox>
    50204302:	fdc42703          	lw	a4,-36(s0)
    50204306:	87ba                	mv	a5,a4
    50204308:	0792                	slli	a5,a5,0x4
    5020430a:	97ba                	add	a5,a5,a4
    5020430c:	078e                	slli	a5,a5,0x3
    5020430e:	97b6                	add	a5,a5,a3
    50204310:	5ffc                	lw	a5,124(a5)
    50204312:	2785                	addiw	a5,a5,1
    50204314:	0007869b          	sext.w	a3,a5
    50204318:	00005617          	auipc	a2,0x5
    5020431c:	32060613          	addi	a2,a2,800 # 50209638 <mbox>
    50204320:	fdc42703          	lw	a4,-36(s0)
    50204324:	87ba                	mv	a5,a4
    50204326:	0792                	slli	a5,a5,0x4
    50204328:	97ba                	add	a5,a5,a4
    5020432a:	078e                	slli	a5,a5,0x3
    5020432c:	97b2                	add	a5,a5,a2
    5020432e:	dff4                	sw	a3,124(a5)
    50204330:	fe842783          	lw	a5,-24(s0)
    50204334:	2785                	addiw	a5,a5,1
    50204336:	fef42423          	sw	a5,-24(s0)
    5020433a:	fe842703          	lw	a4,-24(s0)
    5020433e:	fd842783          	lw	a5,-40(s0)
    50204342:	2701                	sext.w	a4,a4
    50204344:	2781                	sext.w	a5,a5
    50204346:	f6f741e3          	blt	a4,a5,502042a8 <do_mbox_recv+0x118>
    5020434a:	a005                	j	5020436a <do_mbox_recv+0x1da>
    5020434c:	00005697          	auipc	a3,0x5
    50204350:	2ec68693          	addi	a3,a3,748 # 50209638 <mbox>
    50204354:	fdc42703          	lw	a4,-36(s0)
    50204358:	87ba                	mv	a5,a4
    5020435a:	0792                	slli	a5,a5,0x4
    5020435c:	97ba                	add	a5,a5,a4
    5020435e:	078e                	slli	a5,a5,0x3
    50204360:	97b6                	add	a5,a5,a3
    50204362:	679c                	ld	a5,8(a5)
    50204364:	853e                	mv	a0,a5
    50204366:	0b1000ef          	jal	ra,50204c16 <do_unblock>
    5020436a:	fdc42703          	lw	a4,-36(s0)
    5020436e:	87ba                	mv	a5,a4
    50204370:	0792                	slli	a5,a5,0x4
    50204372:	97ba                	add	a5,a5,a4
    50204374:	078e                	slli	a5,a5,0x3
    50204376:	00005717          	auipc	a4,0x5
    5020437a:	2c270713          	addi	a4,a4,706 # 50209638 <mbox>
    5020437e:	97ba                	add	a5,a5,a4
    50204380:	07a1                	addi	a5,a5,8
    50204382:	853e                	mv	a0,a5
    50204384:	ba3fe0ef          	jal	ra,50202f26 <list_is_empty>
    50204388:	87aa                	mv	a5,a0
    5020438a:	d3e9                	beqz	a5,5020434c <do_mbox_recv+0x1bc>
    5020438c:	fdc42703          	lw	a4,-36(s0)
    50204390:	87ba                	mv	a5,a4
    50204392:	0792                	slli	a5,a5,0x4
    50204394:	97ba                	add	a5,a5,a4
    50204396:	078e                	slli	a5,a5,0x3
    50204398:	00005717          	auipc	a4,0x5
    5020439c:	2a070713          	addi	a4,a4,672 # 50209638 <mbox>
    502043a0:	97ba                	add	a5,a5,a4
    502043a2:	853e                	mv	a0,a5
    502043a4:	d3ffe0ef          	jal	ra,502030e2 <spin_lock_release>
    502043a8:	fec42783          	lw	a5,-20(s0)
    502043ac:	853e                	mv	a0,a5
    502043ae:	70a2                	ld	ra,40(sp)
    502043b0:	7402                	ld	s0,32(sp)
    502043b2:	6145                	addi	sp,sp,48
    502043b4:	8082                	ret

00000000502043b6 <smp_init>:
    502043b6:	1141                	addi	sp,sp,-16
    502043b8:	e406                	sd	ra,8(sp)
    502043ba:	e022                	sd	s0,0(sp)
    502043bc:	0800                	addi	s0,sp,16
    502043be:	00006517          	auipc	a0,0x6
    502043c2:	3fa50513          	addi	a0,a0,1018 # 5020a7b8 <kernel_lock>
    502043c6:	c7bfe0ef          	jal	ra,50203040 <spin_lock_init>
    502043ca:	0001                	nop
    502043cc:	60a2                	ld	ra,8(sp)
    502043ce:	6402                	ld	s0,0(sp)
    502043d0:	0141                	addi	sp,sp,16
    502043d2:	8082                	ret

00000000502043d4 <wakeup_other_hart>:
    502043d4:	1141                	addi	sp,sp,-16
    502043d6:	e406                	sd	ra,8(sp)
    502043d8:	e022                	sd	s0,0(sp)
    502043da:	0800                	addi	s0,sp,16
    502043dc:	4501                	li	a0,0
    502043de:	d3dfd0ef          	jal	ra,5020211a <send_ipi>
    502043e2:	0001                	nop
    502043e4:	60a2                	ld	ra,8(sp)
    502043e6:	6402                	ld	s0,0(sp)
    502043e8:	0141                	addi	sp,sp,16
    502043ea:	8082                	ret

00000000502043ec <lock_kernel>:
    502043ec:	1141                	addi	sp,sp,-16
    502043ee:	e406                	sd	ra,8(sp)
    502043f0:	e022                	sd	s0,0(sp)
    502043f2:	0800                	addi	s0,sp,16
    502043f4:	00006517          	auipc	a0,0x6
    502043f8:	3c450513          	addi	a0,a0,964 # 5020a7b8 <kernel_lock>
    502043fc:	cadfe0ef          	jal	ra,502030a8 <spin_lock_acquire>
    50204400:	0001                	nop
    50204402:	60a2                	ld	ra,8(sp)
    50204404:	6402                	ld	s0,0(sp)
    50204406:	0141                	addi	sp,sp,16
    50204408:	8082                	ret

000000005020440a <unlock_kernel>:
    5020440a:	1141                	addi	sp,sp,-16
    5020440c:	e406                	sd	ra,8(sp)
    5020440e:	e022                	sd	s0,0(sp)
    50204410:	0800                	addi	s0,sp,16
    50204412:	00006517          	auipc	a0,0x6
    50204416:	3a650513          	addi	a0,a0,934 # 5020a7b8 <kernel_lock>
    5020441a:	cc9fe0ef          	jal	ra,502030e2 <spin_lock_release>
    5020441e:	0001                	nop
    50204420:	60a2                	ld	ra,8(sp)
    50204422:	6402                	ld	s0,0(sp)
    50204424:	0141                	addi	sp,sp,16
    50204426:	8082                	ret

0000000050204428 <get_ticks>:
    50204428:	1141                	addi	sp,sp,-16
    5020442a:	e422                	sd	s0,8(sp)
    5020442c:	0800                	addi	s0,sp,16
    5020442e:	c0102773          	rdtime	a4
    50204432:	00003797          	auipc	a5,0x3
    50204436:	06e78793          	addi	a5,a5,110 # 502074a0 <time_elapsed>
    5020443a:	e398                	sd	a4,0(a5)
    5020443c:	00003797          	auipc	a5,0x3
    50204440:	06478793          	addi	a5,a5,100 # 502074a0 <time_elapsed>
    50204444:	639c                	ld	a5,0(a5)
    50204446:	853e                	mv	a0,a5
    50204448:	6422                	ld	s0,8(sp)
    5020444a:	0141                	addi	sp,sp,16
    5020444c:	8082                	ret

000000005020444e <get_timer>:
    5020444e:	1141                	addi	sp,sp,-16
    50204450:	e406                	sd	ra,8(sp)
    50204452:	e022                	sd	s0,0(sp)
    50204454:	0800                	addi	s0,sp,16
    50204456:	fd3ff0ef          	jal	ra,50204428 <get_ticks>
    5020445a:	872a                	mv	a4,a0
    5020445c:	00003797          	auipc	a5,0x3
    50204460:	04c78793          	addi	a5,a5,76 # 502074a8 <time_base>
    50204464:	639c                	ld	a5,0(a5)
    50204466:	02f757b3          	divu	a5,a4,a5
    5020446a:	853e                	mv	a0,a5
    5020446c:	60a2                	ld	ra,8(sp)
    5020446e:	6402                	ld	s0,0(sp)
    50204470:	0141                	addi	sp,sp,16
    50204472:	8082                	ret

0000000050204474 <get_time_base>:
    50204474:	1141                	addi	sp,sp,-16
    50204476:	e422                	sd	s0,8(sp)
    50204478:	0800                	addi	s0,sp,16
    5020447a:	00003797          	auipc	a5,0x3
    5020447e:	02e78793          	addi	a5,a5,46 # 502074a8 <time_base>
    50204482:	639c                	ld	a5,0(a5)
    50204484:	853e                	mv	a0,a5
    50204486:	6422                	ld	s0,8(sp)
    50204488:	0141                	addi	sp,sp,16
    5020448a:	8082                	ret

000000005020448c <latency>:
    5020448c:	7179                	addi	sp,sp,-48
    5020448e:	f406                	sd	ra,40(sp)
    50204490:	f022                	sd	s0,32(sp)
    50204492:	1800                	addi	s0,sp,48
    50204494:	fca43c23          	sd	a0,-40(s0)
    50204498:	fb7ff0ef          	jal	ra,5020444e <get_timer>
    5020449c:	fea43423          	sd	a0,-24(s0)
    502044a0:	0001                	nop
    502044a2:	fadff0ef          	jal	ra,5020444e <get_timer>
    502044a6:	872a                	mv	a4,a0
    502044a8:	fe843783          	ld	a5,-24(s0)
    502044ac:	40f707b3          	sub	a5,a4,a5
    502044b0:	fd843703          	ld	a4,-40(s0)
    502044b4:	fee7e7e3          	bltu	a5,a4,502044a2 <latency+0x16>
    502044b8:	0001                	nop
    502044ba:	70a2                	ld	ra,40(sp)
    502044bc:	7402                	ld	s0,32(sp)
    502044be:	6145                	addi	sp,sp,48
    502044c0:	8082                	ret

00000000502044c2 <check_sleeping>:
    502044c2:	1101                	addi	sp,sp,-32
    502044c4:	ec06                	sd	ra,24(sp)
    502044c6:	e822                	sd	s0,16(sp)
    502044c8:	1000                	addi	s0,sp,32
    502044ca:	00003797          	auipc	a5,0x3
    502044ce:	f8678793          	addi	a5,a5,-122 # 50207450 <sleep_queue>
    502044d2:	fef43423          	sd	a5,-24(s0)
    502044d6:	00003797          	auipc	a5,0x3
    502044da:	fca78793          	addi	a5,a5,-54 # 502074a0 <time_elapsed>
    502044de:	6398                	ld	a4,0(a5)
    502044e0:	00003797          	auipc	a5,0x3
    502044e4:	fc878793          	addi	a5,a5,-56 # 502074a8 <time_base>
    502044e8:	639c                	ld	a5,0(a5)
    502044ea:	02f757b3          	divu	a5,a4,a5
    502044ee:	fef43023          	sd	a5,-32(s0)
    502044f2:	a03d                	j	50204520 <check_sleeping+0x5e>
    502044f4:	fe843783          	ld	a5,-24(s0)
    502044f8:	639c                	ld	a5,0(a5)
    502044fa:	1781                	addi	a5,a5,-32
    502044fc:	1107b783          	ld	a5,272(a5)
    50204500:	fe043703          	ld	a4,-32(s0)
    50204504:	00f76963          	bltu	a4,a5,50204516 <check_sleeping+0x54>
    50204508:	fe843783          	ld	a5,-24(s0)
    5020450c:	639c                	ld	a5,0(a5)
    5020450e:	853e                	mv	a0,a5
    50204510:	706000ef          	jal	ra,50204c16 <do_unblock>
    50204514:	a031                	j	50204520 <check_sleeping+0x5e>
    50204516:	fe843783          	ld	a5,-24(s0)
    5020451a:	639c                	ld	a5,0(a5)
    5020451c:	fef43423          	sd	a5,-24(s0)
    50204520:	fe843783          	ld	a5,-24(s0)
    50204524:	6398                	ld	a4,0(a5)
    50204526:	00003797          	auipc	a5,0x3
    5020452a:	f2a78793          	addi	a5,a5,-214 # 50207450 <sleep_queue>
    5020452e:	fcf713e3          	bne	a4,a5,502044f4 <check_sleeping+0x32>
    50204532:	0001                	nop
    50204534:	0001                	nop
    50204536:	60e2                	ld	ra,24(sp)
    50204538:	6442                	ld	s0,16(sp)
    5020453a:	6105                	addi	sp,sp,32
    5020453c:	8082                	ret

000000005020453e <list_is_empty>:
    5020453e:	1101                	addi	sp,sp,-32
    50204540:	ec22                	sd	s0,24(sp)
    50204542:	1000                	addi	s0,sp,32
    50204544:	fea43423          	sd	a0,-24(s0)
    50204548:	fe843783          	ld	a5,-24(s0)
    5020454c:	639c                	ld	a5,0(a5)
    5020454e:	fe843703          	ld	a4,-24(s0)
    50204552:	40f707b3          	sub	a5,a4,a5
    50204556:	0017b793          	seqz	a5,a5
    5020455a:	0ff7f793          	andi	a5,a5,255
    5020455e:	2781                	sext.w	a5,a5
    50204560:	853e                	mv	a0,a5
    50204562:	6462                	ld	s0,24(sp)
    50204564:	6105                	addi	sp,sp,32
    50204566:	8082                	ret

0000000050204568 <list_init>:
    50204568:	1101                	addi	sp,sp,-32
    5020456a:	ec22                	sd	s0,24(sp)
    5020456c:	1000                	addi	s0,sp,32
    5020456e:	fea43423          	sd	a0,-24(s0)
    50204572:	fe843783          	ld	a5,-24(s0)
    50204576:	fe843703          	ld	a4,-24(s0)
    5020457a:	e398                	sd	a4,0(a5)
    5020457c:	fe843783          	ld	a5,-24(s0)
    50204580:	fe843703          	ld	a4,-24(s0)
    50204584:	e798                	sd	a4,8(a5)
    50204586:	0001                	nop
    50204588:	6462                	ld	s0,24(sp)
    5020458a:	6105                	addi	sp,sp,32
    5020458c:	8082                	ret

000000005020458e <list_add>:
    5020458e:	1101                	addi	sp,sp,-32
    50204590:	ec22                	sd	s0,24(sp)
    50204592:	1000                	addi	s0,sp,32
    50204594:	fea43423          	sd	a0,-24(s0)
    50204598:	feb43023          	sd	a1,-32(s0)
    5020459c:	fe843783          	ld	a5,-24(s0)
    502045a0:	fe043703          	ld	a4,-32(s0)
    502045a4:	e398                	sd	a4,0(a5)
    502045a6:	fe043783          	ld	a5,-32(s0)
    502045aa:	6798                	ld	a4,8(a5)
    502045ac:	fe843783          	ld	a5,-24(s0)
    502045b0:	e798                	sd	a4,8(a5)
    502045b2:	fe043783          	ld	a5,-32(s0)
    502045b6:	679c                	ld	a5,8(a5)
    502045b8:	fe843703          	ld	a4,-24(s0)
    502045bc:	e398                	sd	a4,0(a5)
    502045be:	fe043783          	ld	a5,-32(s0)
    502045c2:	fe843703          	ld	a4,-24(s0)
    502045c6:	e798                	sd	a4,8(a5)
    502045c8:	0001                	nop
    502045ca:	6462                	ld	s0,24(sp)
    502045cc:	6105                	addi	sp,sp,32
    502045ce:	8082                	ret

00000000502045d0 <list_del>:
    502045d0:	1101                	addi	sp,sp,-32
    502045d2:	ec06                	sd	ra,24(sp)
    502045d4:	e822                	sd	s0,16(sp)
    502045d6:	1000                	addi	s0,sp,32
    502045d8:	fea43423          	sd	a0,-24(s0)
    502045dc:	fe843503          	ld	a0,-24(s0)
    502045e0:	f5fff0ef          	jal	ra,5020453e <list_is_empty>
    502045e4:	87aa                	mv	a5,a0
    502045e6:	e79d                	bnez	a5,50204614 <list_del+0x44>
    502045e8:	fe843783          	ld	a5,-24(s0)
    502045ec:	639c                	ld	a5,0(a5)
    502045ee:	fe843703          	ld	a4,-24(s0)
    502045f2:	6718                	ld	a4,8(a4)
    502045f4:	e798                	sd	a4,8(a5)
    502045f6:	fe843783          	ld	a5,-24(s0)
    502045fa:	679c                	ld	a5,8(a5)
    502045fc:	fe843703          	ld	a4,-24(s0)
    50204600:	6318                	ld	a4,0(a4)
    50204602:	e398                	sd	a4,0(a5)
    50204604:	fe843783          	ld	a5,-24(s0)
    50204608:	0007b023          	sd	zero,0(a5)
    5020460c:	fe843783          	ld	a5,-24(s0)
    50204610:	0007b423          	sd	zero,8(a5)
    50204614:	0001                	nop
    50204616:	60e2                	ld	ra,24(sp)
    50204618:	6442                	ld	s0,16(sp)
    5020461a:	6105                	addi	sp,sp,32
    5020461c:	8082                	ret

000000005020461e <little_lock_init>:
    5020461e:	1141                	addi	sp,sp,-16
    50204620:	e406                	sd	ra,8(sp)
    50204622:	e022                	sd	s0,0(sp)
    50204624:	0800                	addi	s0,sp,16
    50204626:	00004517          	auipc	a0,0x4
    5020462a:	79a50513          	addi	a0,a0,1946 # 50208dc0 <sched_lock>
    5020462e:	a13fe0ef          	jal	ra,50203040 <spin_lock_init>
    50204632:	00004517          	auipc	a0,0x4
    50204636:	79650513          	addi	a0,a0,1942 # 50208dc8 <ready_queue_lock>
    5020463a:	a07fe0ef          	jal	ra,50203040 <spin_lock_init>
    5020463e:	00005517          	auipc	a0,0x5
    50204642:	d9250513          	addi	a0,a0,-622 # 502093d0 <current_running_lock>
    50204646:	9fbfe0ef          	jal	ra,50203040 <spin_lock_init>
    5020464a:	00005517          	auipc	a0,0x5
    5020464e:	d8e50513          	addi	a0,a0,-626 # 502093d8 <current_running_lock+0x8>
    50204652:	9effe0ef          	jal	ra,50203040 <spin_lock_init>
    50204656:	00005517          	auipc	a0,0x5
    5020465a:	eaa50513          	addi	a0,a0,-342 # 50209500 <pre_running_lock>
    5020465e:	9e3fe0ef          	jal	ra,50203040 <spin_lock_init>
    50204662:	0001                	nop
    50204664:	60a2                	ld	ra,8(sp)
    50204666:	6402                	ld	s0,0(sp)
    50204668:	0141                	addi	sp,sp,16
    5020466a:	8082                	ret

000000005020466c <do_scheduler>:
    5020466c:	7179                	addi	sp,sp,-48
    5020466e:	f406                	sd	ra,40(sp)
    50204670:	f022                	sd	s0,32(sp)
    50204672:	1800                	addi	s0,sp,48
    50204674:	00004517          	auipc	a0,0x4
    50204678:	74c50513          	addi	a0,a0,1868 # 50208dc0 <sched_lock>
    5020467c:	a2dfe0ef          	jal	ra,502030a8 <spin_lock_acquire>
    50204680:	b65fc0ef          	jal	ra,502011e4 <get_current_cpu_id>
    50204684:	fca43c23          	sd	a0,-40(s0)
    50204688:	00005717          	auipc	a4,0x5
    5020468c:	e6870713          	addi	a4,a4,-408 # 502094f0 <current_running>
    50204690:	fd843783          	ld	a5,-40(s0)
    50204694:	078e                	slli	a5,a5,0x3
    50204696:	97ba                	add	a5,a5,a4
    50204698:	6398                	ld	a4,0(a5)
    5020469a:	00005797          	auipc	a5,0x5
    5020469e:	e4678793          	addi	a5,a5,-442 # 502094e0 <pre_running>
    502046a2:	e398                	sd	a4,0(a5)
    502046a4:	00005517          	auipc	a0,0x5
    502046a8:	e5c50513          	addi	a0,a0,-420 # 50209500 <pre_running_lock>
    502046ac:	9fdfe0ef          	jal	ra,502030a8 <spin_lock_acquire>
    502046b0:	00005797          	auipc	a5,0x5
    502046b4:	e3078793          	addi	a5,a5,-464 # 502094e0 <pre_running>
    502046b8:	639c                	ld	a5,0(a5)
    502046ba:	04c78793          	addi	a5,a5,76
    502046be:	853e                	mv	a0,a5
    502046c0:	9e9fe0ef          	jal	ra,502030a8 <spin_lock_acquire>
    502046c4:	dffff0ef          	jal	ra,502044c2 <check_sleeping>
    502046c8:	00005797          	auipc	a5,0x5
    502046cc:	e1878793          	addi	a5,a5,-488 # 502094e0 <pre_running>
    502046d0:	639c                	ld	a5,0(a5)
    502046d2:	0d87a783          	lw	a5,216(a5)
    502046d6:	eb81                	bnez	a5,502046e6 <do_scheduler+0x7a>
    502046d8:	00005797          	auipc	a5,0x5
    502046dc:	e0878793          	addi	a5,a5,-504 # 502094e0 <pre_running>
    502046e0:	639c                	ld	a5,0(a5)
    502046e2:	1007a023          	sw	zero,256(a5)
    502046e6:	00005797          	auipc	a5,0x5
    502046ea:	dfa78793          	addi	a5,a5,-518 # 502094e0 <pre_running>
    502046ee:	639c                	ld	a5,0(a5)
    502046f0:	1007a783          	lw	a5,256(a5)
    502046f4:	873e                	mv	a4,a5
    502046f6:	4785                	li	a5,1
    502046f8:	00f70d63          	beq	a4,a5,50204712 <do_scheduler+0xa6>
    502046fc:	00005797          	auipc	a5,0x5
    50204700:	de478793          	addi	a5,a5,-540 # 502094e0 <pre_running>
    50204704:	639c                	ld	a5,0(a5)
    50204706:	1007a783          	lw	a5,256(a5)
    5020470a:	873e                	mv	a4,a5
    5020470c:	4789                	li	a5,2
    5020470e:	04f71463          	bne	a4,a5,50204756 <do_scheduler+0xea>
    50204712:	00004517          	auipc	a0,0x4
    50204716:	6b650513          	addi	a0,a0,1718 # 50208dc8 <ready_queue_lock>
    5020471a:	98ffe0ef          	jal	ra,502030a8 <spin_lock_acquire>
    5020471e:	00005797          	auipc	a5,0x5
    50204722:	dc278793          	addi	a5,a5,-574 # 502094e0 <pre_running>
    50204726:	639c                	ld	a5,0(a5)
    50204728:	02078793          	addi	a5,a5,32
    5020472c:	00003597          	auipc	a1,0x3
    50204730:	d1458593          	addi	a1,a1,-748 # 50207440 <ready_queue>
    50204734:	853e                	mv	a0,a5
    50204736:	e59ff0ef          	jal	ra,5020458e <list_add>
    5020473a:	00004517          	auipc	a0,0x4
    5020473e:	68e50513          	addi	a0,a0,1678 # 50208dc8 <ready_queue_lock>
    50204742:	9a1fe0ef          	jal	ra,502030e2 <spin_lock_release>
    50204746:	00005797          	auipc	a5,0x5
    5020474a:	d9a78793          	addi	a5,a5,-614 # 502094e0 <pre_running>
    5020474e:	639c                	ld	a5,0(a5)
    50204750:	4709                	li	a4,2
    50204752:	10e7a023          	sw	a4,256(a5)
    50204756:	00004517          	auipc	a0,0x4
    5020475a:	67250513          	addi	a0,a0,1650 # 50208dc8 <ready_queue_lock>
    5020475e:	94bfe0ef          	jal	ra,502030a8 <spin_lock_acquire>
    50204762:	fd843783          	ld	a5,-40(s0)
    50204766:	00379713          	slli	a4,a5,0x3
    5020476a:	00005797          	auipc	a5,0x5
    5020476e:	c6678793          	addi	a5,a5,-922 # 502093d0 <current_running_lock>
    50204772:	97ba                	add	a5,a5,a4
    50204774:	853e                	mv	a0,a5
    50204776:	933fe0ef          	jal	ra,502030a8 <spin_lock_acquire>
    5020477a:	00003517          	auipc	a0,0x3
    5020477e:	cc650513          	addi	a0,a0,-826 # 50207440 <ready_queue>
    50204782:	dbdff0ef          	jal	ra,5020453e <list_is_empty>
    50204786:	87aa                	mv	a5,a0
    50204788:	e7f5                	bnez	a5,50204874 <do_scheduler+0x208>
    5020478a:	00003797          	auipc	a5,0x3
    5020478e:	cb678793          	addi	a5,a5,-842 # 50207440 <ready_queue>
    50204792:	639c                	ld	a5,0(a5)
    50204794:	fef43423          	sd	a5,-24(s0)
    50204798:	fe843783          	ld	a5,-24(s0)
    5020479c:	1781                	addi	a5,a5,-32
    5020479e:	fef43023          	sd	a5,-32(s0)
    502047a2:	a819                	j	502047b8 <do_scheduler+0x14c>
    502047a4:	fe843783          	ld	a5,-24(s0)
    502047a8:	639c                	ld	a5,0(a5)
    502047aa:	fef43423          	sd	a5,-24(s0)
    502047ae:	fe843783          	ld	a5,-24(s0)
    502047b2:	1781                	addi	a5,a5,-32
    502047b4:	fef43023          	sd	a5,-32(s0)
    502047b8:	fe043783          	ld	a5,-32(s0)
    502047bc:	0f07a783          	lw	a5,240(a5)
    502047c0:	c3a9                	beqz	a5,50204802 <do_scheduler+0x196>
    502047c2:	fe043783          	ld	a5,-32(s0)
    502047c6:	0f07a783          	lw	a5,240(a5)
    502047ca:	873e                	mv	a4,a5
    502047cc:	4785                	li	a5,1
    502047ce:	00f71563          	bne	a4,a5,502047d8 <do_scheduler+0x16c>
    502047d2:	fd843783          	ld	a5,-40(s0)
    502047d6:	c795                	beqz	a5,50204802 <do_scheduler+0x196>
    502047d8:	fe043783          	ld	a5,-32(s0)
    502047dc:	0f07a783          	lw	a5,240(a5)
    502047e0:	873e                	mv	a4,a5
    502047e2:	4789                	li	a5,2
    502047e4:	00f71763          	bne	a4,a5,502047f2 <do_scheduler+0x186>
    502047e8:	fd843703          	ld	a4,-40(s0)
    502047ec:	4785                	li	a5,1
    502047ee:	00f70a63          	beq	a4,a5,50204802 <do_scheduler+0x196>
    502047f2:	fe843703          	ld	a4,-24(s0)
    502047f6:	00003797          	auipc	a5,0x3
    502047fa:	c4a78793          	addi	a5,a5,-950 # 50207440 <ready_queue>
    502047fe:	faf713e3          	bne	a4,a5,502047a4 <do_scheduler+0x138>
    50204802:	fe843703          	ld	a4,-24(s0)
    50204806:	00003797          	auipc	a5,0x3
    5020480a:	c3a78793          	addi	a5,a5,-966 # 50207440 <ready_queue>
    5020480e:	02f71963          	bne	a4,a5,50204840 <do_scheduler+0x1d4>
    50204812:	fd843783          	ld	a5,-40(s0)
    50204816:	c799                	beqz	a5,50204824 <do_scheduler+0x1b8>
    50204818:	00005797          	auipc	a5,0x5
    5020481c:	cd078793          	addi	a5,a5,-816 # 502094e8 <newcore_pcb>
    50204820:	639c                	ld	a5,0(a5)
    50204822:	a029                	j	5020482c <do_scheduler+0x1c0>
    50204824:	00003797          	auipc	a5,0x3
    50204828:	9ec78793          	addi	a5,a5,-1556 # 50207210 <pid0_pcb>
    5020482c:	00005697          	auipc	a3,0x5
    50204830:	cc468693          	addi	a3,a3,-828 # 502094f0 <current_running>
    50204834:	fd843703          	ld	a4,-40(s0)
    50204838:	070e                	slli	a4,a4,0x3
    5020483a:	9736                	add	a4,a4,a3
    5020483c:	e31c                	sd	a5,0(a4)
    5020483e:	a8bd                	j	502048bc <do_scheduler+0x250>
    50204840:	00005717          	auipc	a4,0x5
    50204844:	cb070713          	addi	a4,a4,-848 # 502094f0 <current_running>
    50204848:	fd843783          	ld	a5,-40(s0)
    5020484c:	078e                	slli	a5,a5,0x3
    5020484e:	97ba                	add	a5,a5,a4
    50204850:	fe043703          	ld	a4,-32(s0)
    50204854:	e398                	sd	a4,0(a5)
    50204856:	00005717          	auipc	a4,0x5
    5020485a:	c9a70713          	addi	a4,a4,-870 # 502094f0 <current_running>
    5020485e:	fd843783          	ld	a5,-40(s0)
    50204862:	078e                	slli	a5,a5,0x3
    50204864:	97ba                	add	a5,a5,a4
    50204866:	639c                	ld	a5,0(a5)
    50204868:	02078793          	addi	a5,a5,32
    5020486c:	853e                	mv	a0,a5
    5020486e:	d63ff0ef          	jal	ra,502045d0 <list_del>
    50204872:	a0a9                	j	502048bc <do_scheduler+0x250>
    50204874:	fd843783          	ld	a5,-40(s0)
    50204878:	ef99                	bnez	a5,50204896 <do_scheduler+0x22a>
    5020487a:	00005717          	auipc	a4,0x5
    5020487e:	c7670713          	addi	a4,a4,-906 # 502094f0 <current_running>
    50204882:	fd843783          	ld	a5,-40(s0)
    50204886:	078e                	slli	a5,a5,0x3
    50204888:	97ba                	add	a5,a5,a4
    5020488a:	00003717          	auipc	a4,0x3
    5020488e:	98670713          	addi	a4,a4,-1658 # 50207210 <pid0_pcb>
    50204892:	e398                	sd	a4,0(a5)
    50204894:	a025                	j	502048bc <do_scheduler+0x250>
    50204896:	fd843703          	ld	a4,-40(s0)
    5020489a:	4785                	li	a5,1
    5020489c:	02f71063          	bne	a4,a5,502048bc <do_scheduler+0x250>
    502048a0:	00005797          	auipc	a5,0x5
    502048a4:	c4878793          	addi	a5,a5,-952 # 502094e8 <newcore_pcb>
    502048a8:	6398                	ld	a4,0(a5)
    502048aa:	00005697          	auipc	a3,0x5
    502048ae:	c4668693          	addi	a3,a3,-954 # 502094f0 <current_running>
    502048b2:	fd843783          	ld	a5,-40(s0)
    502048b6:	078e                	slli	a5,a5,0x3
    502048b8:	97b6                	add	a5,a5,a3
    502048ba:	e398                	sd	a4,0(a5)
    502048bc:	00005717          	auipc	a4,0x5
    502048c0:	c3470713          	addi	a4,a4,-972 # 502094f0 <current_running>
    502048c4:	fd843783          	ld	a5,-40(s0)
    502048c8:	078e                	slli	a5,a5,0x3
    502048ca:	97ba                	add	a5,a5,a4
    502048cc:	6398                	ld	a4,0(a5)
    502048ce:	00005797          	auipc	a5,0x5
    502048d2:	c1278793          	addi	a5,a5,-1006 # 502094e0 <pre_running>
    502048d6:	639c                	ld	a5,0(a5)
    502048d8:	02f70063          	beq	a4,a5,502048f8 <do_scheduler+0x28c>
    502048dc:	00005717          	auipc	a4,0x5
    502048e0:	c1470713          	addi	a4,a4,-1004 # 502094f0 <current_running>
    502048e4:	fd843783          	ld	a5,-40(s0)
    502048e8:	078e                	slli	a5,a5,0x3
    502048ea:	97ba                	add	a5,a5,a4
    502048ec:	639c                	ld	a5,0(a5)
    502048ee:	04c78793          	addi	a5,a5,76
    502048f2:	853e                	mv	a0,a5
    502048f4:	fb4fe0ef          	jal	ra,502030a8 <spin_lock_acquire>
    502048f8:	00005717          	auipc	a4,0x5
    502048fc:	bf870713          	addi	a4,a4,-1032 # 502094f0 <current_running>
    50204900:	fd843783          	ld	a5,-40(s0)
    50204904:	078e                	slli	a5,a5,0x3
    50204906:	97ba                	add	a5,a5,a4
    50204908:	639c                	ld	a5,0(a5)
    5020490a:	fd843703          	ld	a4,-40(s0)
    5020490e:	f7f8                	sd	a4,232(a5)
    50204910:	00005717          	auipc	a4,0x5
    50204914:	be070713          	addi	a4,a4,-1056 # 502094f0 <current_running>
    50204918:	fd843783          	ld	a5,-40(s0)
    5020491c:	078e                	slli	a5,a5,0x3
    5020491e:	97ba                	add	a5,a5,a4
    50204920:	639c                	ld	a5,0(a5)
    50204922:	4705                	li	a4,1
    50204924:	10e7a023          	sw	a4,256(a5)
    50204928:	00005717          	auipc	a4,0x5
    5020492c:	bc870713          	addi	a4,a4,-1080 # 502094f0 <current_running>
    50204930:	fd843783          	ld	a5,-40(s0)
    50204934:	078e                	slli	a5,a5,0x3
    50204936:	97ba                	add	a5,a5,a4
    50204938:	6398                	ld	a4,0(a5)
    5020493a:	00006797          	auipc	a5,0x6
    5020493e:	e8678793          	addi	a5,a5,-378 # 5020a7c0 <tcb>
    50204942:	02f70163          	beq	a4,a5,50204964 <do_scheduler+0x2f8>
    50204946:	00005717          	auipc	a4,0x5
    5020494a:	baa70713          	addi	a4,a4,-1110 # 502094f0 <current_running>
    5020494e:	fd843783          	ld	a5,-40(s0)
    50204952:	078e                	slli	a5,a5,0x3
    50204954:	97ba                	add	a5,a5,a4
    50204956:	6398                	ld	a4,0(a5)
    50204958:	00006797          	auipc	a5,0x6
    5020495c:	f8078793          	addi	a5,a5,-128 # 5020a8d8 <tcb+0x118>
    50204960:	0af71463          	bne	a4,a5,50204a08 <do_scheduler+0x39c>
    50204964:	00003797          	auipc	a5,0x3
    50204968:	b5878793          	addi	a5,a5,-1192 # 502074bc <thread_yield_times>
    5020496c:	439c                	lw	a5,0(a5)
    5020496e:	2785                	addiw	a5,a5,1
    50204970:	0007871b          	sext.w	a4,a5
    50204974:	00003797          	auipc	a5,0x3
    50204978:	b4878793          	addi	a5,a5,-1208 # 502074bc <thread_yield_times>
    5020497c:	c398                	sw	a4,0(a5)
    5020497e:	45a1                	li	a1,8
    50204980:	4501                	li	a0,0
    50204982:	af7fd0ef          	jal	ra,50202478 <screen_move_cursor>
    50204986:	00005717          	auipc	a4,0x5
    5020498a:	b6a70713          	addi	a4,a4,-1174 # 502094f0 <current_running>
    5020498e:	fd843783          	ld	a5,-40(s0)
    50204992:	078e                	slli	a5,a5,0x3
    50204994:	97ba                	add	a5,a5,a4
    50204996:	6398                	ld	a4,0(a5)
    50204998:	00006797          	auipc	a5,0x6
    5020499c:	e2878793          	addi	a5,a5,-472 # 5020a7c0 <tcb>
    502049a0:	02f71063          	bne	a4,a5,502049c0 <do_scheduler+0x354>
    502049a4:	00003797          	auipc	a5,0x3
    502049a8:	b1078793          	addi	a5,a5,-1264 # 502074b4 <thread1_yield_times>
    502049ac:	439c                	lw	a5,0(a5)
    502049ae:	2785                	addiw	a5,a5,1
    502049b0:	0007871b          	sext.w	a4,a5
    502049b4:	00003797          	auipc	a5,0x3
    502049b8:	b0078793          	addi	a5,a5,-1280 # 502074b4 <thread1_yield_times>
    502049bc:	c398                	sw	a4,0(a5)
    502049be:	a831                	j	502049da <do_scheduler+0x36e>
    502049c0:	00003797          	auipc	a5,0x3
    502049c4:	af878793          	addi	a5,a5,-1288 # 502074b8 <thread2_yield_times>
    502049c8:	439c                	lw	a5,0(a5)
    502049ca:	2785                	addiw	a5,a5,1
    502049cc:	0007871b          	sext.w	a4,a5
    502049d0:	00003797          	auipc	a5,0x3
    502049d4:	ae878793          	addi	a5,a5,-1304 # 502074b8 <thread2_yield_times>
    502049d8:	c398                	sw	a4,0(a5)
    502049da:	00003797          	auipc	a5,0x3
    502049de:	ada78793          	addi	a5,a5,-1318 # 502074b4 <thread1_yield_times>
    502049e2:	4398                	lw	a4,0(a5)
    502049e4:	00003797          	auipc	a5,0x3
    502049e8:	ad478793          	addi	a5,a5,-1324 # 502074b8 <thread2_yield_times>
    502049ec:	4390                	lw	a2,0(a5)
    502049ee:	00003797          	auipc	a5,0x3
    502049f2:	ace78793          	addi	a5,a5,-1330 # 502074bc <thread_yield_times>
    502049f6:	439c                	lw	a5,0(a5)
    502049f8:	86be                	mv	a3,a5
    502049fa:	85ba                	mv	a1,a4
    502049fc:	00002517          	auipc	a0,0x2
    50204a00:	64c50513          	addi	a0,a0,1612 # 50207048 <__FUNCTION__.1397+0x10>
    50204a04:	429010ef          	jal	ra,5020662c <printk>
    50204a08:	00004517          	auipc	a0,0x4
    50204a0c:	3c050513          	addi	a0,a0,960 # 50208dc8 <ready_queue_lock>
    50204a10:	ed2fe0ef          	jal	ra,502030e2 <spin_lock_release>
    50204a14:	00005797          	auipc	a5,0x5
    50204a18:	acc78793          	addi	a5,a5,-1332 # 502094e0 <pre_running>
    50204a1c:	6394                	ld	a3,0(a5)
    50204a1e:	00005717          	auipc	a4,0x5
    50204a22:	ad270713          	addi	a4,a4,-1326 # 502094f0 <current_running>
    50204a26:	fd843783          	ld	a5,-40(s0)
    50204a2a:	078e                	slli	a5,a5,0x3
    50204a2c:	97ba                	add	a5,a5,a4
    50204a2e:	639c                	ld	a5,0(a5)
    50204a30:	85be                	mv	a1,a5
    50204a32:	8536                	mv	a0,a3
    50204a34:	e40fc0ef          	jal	ra,50201074 <switch_to>
    50204a38:	0001                	nop
    50204a3a:	70a2                	ld	ra,40(sp)
    50204a3c:	7402                	ld	s0,32(sp)
    50204a3e:	6145                	addi	sp,sp,48
    50204a40:	8082                	ret

0000000050204a42 <sched_release>:
    50204a42:	1101                	addi	sp,sp,-32
    50204a44:	ec06                	sd	ra,24(sp)
    50204a46:	e822                	sd	s0,16(sp)
    50204a48:	1000                	addi	s0,sp,32
    50204a4a:	f9afc0ef          	jal	ra,502011e4 <get_current_cpu_id>
    50204a4e:	fea43423          	sd	a0,-24(s0)
    50204a52:	00005717          	auipc	a4,0x5
    50204a56:	a9e70713          	addi	a4,a4,-1378 # 502094f0 <current_running>
    50204a5a:	fe843783          	ld	a5,-24(s0)
    50204a5e:	078e                	slli	a5,a5,0x3
    50204a60:	97ba                	add	a5,a5,a4
    50204a62:	639c                	ld	a5,0(a5)
    50204a64:	04c78793          	addi	a5,a5,76
    50204a68:	853e                	mv	a0,a5
    50204a6a:	e78fe0ef          	jal	ra,502030e2 <spin_lock_release>
    50204a6e:	fe843783          	ld	a5,-24(s0)
    50204a72:	00379713          	slli	a4,a5,0x3
    50204a76:	00005797          	auipc	a5,0x5
    50204a7a:	95a78793          	addi	a5,a5,-1702 # 502093d0 <current_running_lock>
    50204a7e:	97ba                	add	a5,a5,a4
    50204a80:	853e                	mv	a0,a5
    50204a82:	e60fe0ef          	jal	ra,502030e2 <spin_lock_release>
    50204a86:	00005797          	auipc	a5,0x5
    50204a8a:	a5a78793          	addi	a5,a5,-1446 # 502094e0 <pre_running>
    50204a8e:	639c                	ld	a5,0(a5)
    50204a90:	04c78793          	addi	a5,a5,76
    50204a94:	853e                	mv	a0,a5
    50204a96:	e4cfe0ef          	jal	ra,502030e2 <spin_lock_release>
    50204a9a:	00005517          	auipc	a0,0x5
    50204a9e:	a6650513          	addi	a0,a0,-1434 # 50209500 <pre_running_lock>
    50204aa2:	e40fe0ef          	jal	ra,502030e2 <spin_lock_release>
    50204aa6:	00004517          	auipc	a0,0x4
    50204aaa:	31a50513          	addi	a0,a0,794 # 50208dc0 <sched_lock>
    50204aae:	e34fe0ef          	jal	ra,502030e2 <spin_lock_release>
    50204ab2:	0001                	nop
    50204ab4:	60e2                	ld	ra,24(sp)
    50204ab6:	6442                	ld	s0,16(sp)
    50204ab8:	6105                	addi	sp,sp,32
    50204aba:	8082                	ret

0000000050204abc <do_sleep>:
    50204abc:	7139                	addi	sp,sp,-64
    50204abe:	fc06                	sd	ra,56(sp)
    50204ac0:	f822                	sd	s0,48(sp)
    50204ac2:	f426                	sd	s1,40(sp)
    50204ac4:	0080                	addi	s0,sp,64
    50204ac6:	87aa                	mv	a5,a0
    50204ac8:	fcf42623          	sw	a5,-52(s0)
    50204acc:	f18fc0ef          	jal	ra,502011e4 <get_current_cpu_id>
    50204ad0:	fca43c23          	sd	a0,-40(s0)
    50204ad4:	00005717          	auipc	a4,0x5
    50204ad8:	a1c70713          	addi	a4,a4,-1508 # 502094f0 <current_running>
    50204adc:	fd843783          	ld	a5,-40(s0)
    50204ae0:	078e                	slli	a5,a5,0x3
    50204ae2:	97ba                	add	a5,a5,a4
    50204ae4:	639c                	ld	a5,0(a5)
    50204ae6:	04c78793          	addi	a5,a5,76
    50204aea:	853e                	mv	a0,a5
    50204aec:	dbcfe0ef          	jal	ra,502030a8 <spin_lock_acquire>
    50204af0:	fd843783          	ld	a5,-40(s0)
    50204af4:	00379713          	slli	a4,a5,0x3
    50204af8:	00005797          	auipc	a5,0x5
    50204afc:	8d878793          	addi	a5,a5,-1832 # 502093d0 <current_running_lock>
    50204b00:	97ba                	add	a5,a5,a4
    50204b02:	853e                	mv	a0,a5
    50204b04:	da4fe0ef          	jal	ra,502030a8 <spin_lock_acquire>
    50204b08:	00005717          	auipc	a4,0x5
    50204b0c:	9e870713          	addi	a4,a4,-1560 # 502094f0 <current_running>
    50204b10:	fd843783          	ld	a5,-40(s0)
    50204b14:	078e                	slli	a5,a5,0x3
    50204b16:	97ba                	add	a5,a5,a4
    50204b18:	639c                	ld	a5,0(a5)
    50204b1a:	1007a023          	sw	zero,256(a5)
    50204b1e:	fcc46483          	lwu	s1,-52(s0)
    50204b22:	92dff0ef          	jal	ra,5020444e <get_timer>
    50204b26:	86aa                	mv	a3,a0
    50204b28:	00005717          	auipc	a4,0x5
    50204b2c:	9c870713          	addi	a4,a4,-1592 # 502094f0 <current_running>
    50204b30:	fd843783          	ld	a5,-40(s0)
    50204b34:	078e                	slli	a5,a5,0x3
    50204b36:	97ba                	add	a5,a5,a4
    50204b38:	639c                	ld	a5,0(a5)
    50204b3a:	00d48733          	add	a4,s1,a3
    50204b3e:	10e7b823          	sd	a4,272(a5)
    50204b42:	00005717          	auipc	a4,0x5
    50204b46:	9ae70713          	addi	a4,a4,-1618 # 502094f0 <current_running>
    50204b4a:	fd843783          	ld	a5,-40(s0)
    50204b4e:	078e                	slli	a5,a5,0x3
    50204b50:	97ba                	add	a5,a5,a4
    50204b52:	639c                	ld	a5,0(a5)
    50204b54:	02078793          	addi	a5,a5,32
    50204b58:	00003597          	auipc	a1,0x3
    50204b5c:	8f858593          	addi	a1,a1,-1800 # 50207450 <sleep_queue>
    50204b60:	853e                	mv	a0,a5
    50204b62:	a2dff0ef          	jal	ra,5020458e <list_add>
    50204b66:	fd843783          	ld	a5,-40(s0)
    50204b6a:	00379713          	slli	a4,a5,0x3
    50204b6e:	00005797          	auipc	a5,0x5
    50204b72:	86278793          	addi	a5,a5,-1950 # 502093d0 <current_running_lock>
    50204b76:	97ba                	add	a5,a5,a4
    50204b78:	853e                	mv	a0,a5
    50204b7a:	d68fe0ef          	jal	ra,502030e2 <spin_lock_release>
    50204b7e:	00005717          	auipc	a4,0x5
    50204b82:	97270713          	addi	a4,a4,-1678 # 502094f0 <current_running>
    50204b86:	fd843783          	ld	a5,-40(s0)
    50204b8a:	078e                	slli	a5,a5,0x3
    50204b8c:	97ba                	add	a5,a5,a4
    50204b8e:	639c                	ld	a5,0(a5)
    50204b90:	04c78793          	addi	a5,a5,76
    50204b94:	853e                	mv	a0,a5
    50204b96:	d4cfe0ef          	jal	ra,502030e2 <spin_lock_release>
    50204b9a:	ad3ff0ef          	jal	ra,5020466c <do_scheduler>
    50204b9e:	0001                	nop
    50204ba0:	70e2                	ld	ra,56(sp)
    50204ba2:	7442                	ld	s0,48(sp)
    50204ba4:	74a2                	ld	s1,40(sp)
    50204ba6:	6121                	addi	sp,sp,64
    50204ba8:	8082                	ret

0000000050204baa <do_block>:
    50204baa:	7139                	addi	sp,sp,-64
    50204bac:	fc06                	sd	ra,56(sp)
    50204bae:	f822                	sd	s0,48(sp)
    50204bb0:	0080                	addi	s0,sp,64
    50204bb2:	fca43c23          	sd	a0,-40(s0)
    50204bb6:	fcb43823          	sd	a1,-48(s0)
    50204bba:	fcc43423          	sd	a2,-56(s0)
    50204bbe:	fd843783          	ld	a5,-40(s0)
    50204bc2:	1781                	addi	a5,a5,-32
    50204bc4:	fef43423          	sd	a5,-24(s0)
    50204bc8:	fe843783          	ld	a5,-24(s0)
    50204bcc:	04c78793          	addi	a5,a5,76
    50204bd0:	853e                	mv	a0,a5
    50204bd2:	cd6fe0ef          	jal	ra,502030a8 <spin_lock_acquire>
    50204bd6:	fd043583          	ld	a1,-48(s0)
    50204bda:	fd843503          	ld	a0,-40(s0)
    50204bde:	9b1ff0ef          	jal	ra,5020458e <list_add>
    50204be2:	fe843783          	ld	a5,-24(s0)
    50204be6:	1007a023          	sw	zero,256(a5)
    50204bea:	fc843503          	ld	a0,-56(s0)
    50204bee:	cf4fe0ef          	jal	ra,502030e2 <spin_lock_release>
    50204bf2:	fe843783          	ld	a5,-24(s0)
    50204bf6:	04c78793          	addi	a5,a5,76
    50204bfa:	853e                	mv	a0,a5
    50204bfc:	ce6fe0ef          	jal	ra,502030e2 <spin_lock_release>
    50204c00:	a6dff0ef          	jal	ra,5020466c <do_scheduler>
    50204c04:	fc843503          	ld	a0,-56(s0)
    50204c08:	ca0fe0ef          	jal	ra,502030a8 <spin_lock_acquire>
    50204c0c:	0001                	nop
    50204c0e:	70e2                	ld	ra,56(sp)
    50204c10:	7442                	ld	s0,48(sp)
    50204c12:	6121                	addi	sp,sp,64
    50204c14:	8082                	ret

0000000050204c16 <do_unblock>:
    50204c16:	7179                	addi	sp,sp,-48
    50204c18:	f406                	sd	ra,40(sp)
    50204c1a:	f022                	sd	s0,32(sp)
    50204c1c:	1800                	addi	s0,sp,48
    50204c1e:	fca43c23          	sd	a0,-40(s0)
    50204c22:	fd843783          	ld	a5,-40(s0)
    50204c26:	1781                	addi	a5,a5,-32
    50204c28:	fef43423          	sd	a5,-24(s0)
    50204c2c:	fe843783          	ld	a5,-24(s0)
    50204c30:	04c78793          	addi	a5,a5,76
    50204c34:	853e                	mv	a0,a5
    50204c36:	c72fe0ef          	jal	ra,502030a8 <spin_lock_acquire>
    50204c3a:	fd843503          	ld	a0,-40(s0)
    50204c3e:	993ff0ef          	jal	ra,502045d0 <list_del>
    50204c42:	fe843783          	ld	a5,-24(s0)
    50204c46:	4709                	li	a4,2
    50204c48:	10e7a023          	sw	a4,256(a5)
    50204c4c:	00004517          	auipc	a0,0x4
    50204c50:	17c50513          	addi	a0,a0,380 # 50208dc8 <ready_queue_lock>
    50204c54:	c54fe0ef          	jal	ra,502030a8 <spin_lock_acquire>
    50204c58:	00002597          	auipc	a1,0x2
    50204c5c:	7e858593          	addi	a1,a1,2024 # 50207440 <ready_queue>
    50204c60:	fd843503          	ld	a0,-40(s0)
    50204c64:	92bff0ef          	jal	ra,5020458e <list_add>
    50204c68:	00004517          	auipc	a0,0x4
    50204c6c:	16050513          	addi	a0,a0,352 # 50208dc8 <ready_queue_lock>
    50204c70:	c72fe0ef          	jal	ra,502030e2 <spin_lock_release>
    50204c74:	fe843783          	ld	a5,-24(s0)
    50204c78:	04c78793          	addi	a5,a5,76
    50204c7c:	853e                	mv	a0,a5
    50204c7e:	c64fe0ef          	jal	ra,502030e2 <spin_lock_release>
    50204c82:	0001                	nop
    50204c84:	70a2                	ld	ra,40(sp)
    50204c86:	7402                	ld	s0,32(sp)
    50204c88:	6145                	addi	sp,sp,48
    50204c8a:	8082                	ret

0000000050204c8c <init_pcb_stack>:
    50204c8c:	7139                	addi	sp,sp,-64
    50204c8e:	fc22                	sd	s0,56(sp)
    50204c90:	0080                	addi	s0,sp,64
    50204c92:	fca43c23          	sd	a0,-40(s0)
    50204c96:	fcb43823          	sd	a1,-48(s0)
    50204c9a:	fcc43423          	sd	a2,-56(s0)
    50204c9e:	fcd43023          	sd	a3,-64(s0)
    50204ca2:	fd843783          	ld	a5,-40(s0)
    50204ca6:	ee078793          	addi	a5,a5,-288
    50204caa:	fef43423          	sd	a5,-24(s0)
    50204cae:	fe843783          	ld	a5,-24(s0)
    50204cb2:	fc843703          	ld	a4,-56(s0)
    50204cb6:	e798                	sd	a4,8(a5)
    50204cb8:	fe843783          	ld	a5,-24(s0)
    50204cbc:	fd043703          	ld	a4,-48(s0)
    50204cc0:	eb98                	sd	a4,16(a5)
    50204cc2:	fc043703          	ld	a4,-64(s0)
    50204cc6:	fe843783          	ld	a5,-24(s0)
    50204cca:	f398                	sd	a4,32(a5)
    50204ccc:	fe843783          	ld	a5,-24(s0)
    50204cd0:	fc843703          	ld	a4,-56(s0)
    50204cd4:	10e7b423          	sd	a4,264(a5)
    50204cd8:	fe843783          	ld	a5,-24(s0)
    50204cdc:	4709                	li	a4,2
    50204cde:	10e7b023          	sd	a4,256(a5)
    50204ce2:	fe843783          	ld	a5,-24(s0)
    50204ce6:	f9078793          	addi	a5,a5,-112
    50204cea:	fef43023          	sd	a5,-32(s0)
    50204cee:	fd843783          	ld	a5,-40(s0)
    50204cf2:	e7078713          	addi	a4,a5,-400
    50204cf6:	fc043783          	ld	a5,-64(s0)
    50204cfa:	e398                	sd	a4,0(a5)
    50204cfc:	fc043783          	ld	a5,-64(s0)
    50204d00:	fd043703          	ld	a4,-48(s0)
    50204d04:	e798                	sd	a4,8(a5)
    50204d06:	fc043783          	ld	a5,-64(s0)
    50204d0a:	fc843703          	ld	a4,-56(s0)
    50204d0e:	e3b8                	sd	a4,64(a5)
    50204d10:	ffffc717          	auipc	a4,0xffffc
    50204d14:	3b870713          	addi	a4,a4,952 # 502010c8 <ret_from_exception>
    50204d18:	fe043783          	ld	a5,-32(s0)
    50204d1c:	e398                	sd	a4,0(a5)
    50204d1e:	fc043783          	ld	a5,-64(s0)
    50204d22:	6398                	ld	a4,0(a5)
    50204d24:	fe043783          	ld	a5,-32(s0)
    50204d28:	e798                	sd	a4,8(a5)
    50204d2a:	0001                	nop
    50204d2c:	7462                	ld	s0,56(sp)
    50204d2e:	6121                	addi	sp,sp,64
    50204d30:	8082                	ret

0000000050204d32 <thread_yield>:
    50204d32:	1101                	addi	sp,sp,-32
    50204d34:	ec06                	sd	ra,24(sp)
    50204d36:	e822                	sd	s0,16(sp)
    50204d38:	1000                	addi	s0,sp,32
    50204d3a:	caafc0ef          	jal	ra,502011e4 <get_current_cpu_id>
    50204d3e:	fea43423          	sd	a0,-24(s0)
    50204d42:	00004717          	auipc	a4,0x4
    50204d46:	7ae70713          	addi	a4,a4,1966 # 502094f0 <current_running>
    50204d4a:	fe843783          	ld	a5,-24(s0)
    50204d4e:	078e                	slli	a5,a5,0x3
    50204d50:	97ba                	add	a5,a5,a4
    50204d52:	6398                	ld	a4,0(a5)
    50204d54:	00004797          	auipc	a5,0x4
    50204d58:	78c78793          	addi	a5,a5,1932 # 502094e0 <pre_running>
    50204d5c:	e398                	sd	a4,0(a5)
    50204d5e:	00004797          	auipc	a5,0x4
    50204d62:	78278793          	addi	a5,a5,1922 # 502094e0 <pre_running>
    50204d66:	639c                	ld	a5,0(a5)
    50204d68:	0e47a783          	lw	a5,228(a5)
    50204d6c:	ef85                	bnez	a5,50204da4 <thread_yield+0x72>
    50204d6e:	00004717          	auipc	a4,0x4
    50204d72:	78270713          	addi	a4,a4,1922 # 502094f0 <current_running>
    50204d76:	fe843783          	ld	a5,-24(s0)
    50204d7a:	078e                	slli	a5,a5,0x3
    50204d7c:	97ba                	add	a5,a5,a4
    50204d7e:	00006717          	auipc	a4,0x6
    50204d82:	b5a70713          	addi	a4,a4,-1190 # 5020a8d8 <tcb+0x118>
    50204d86:	e398                	sd	a4,0(a5)
    50204d88:	00002797          	auipc	a5,0x2
    50204d8c:	73078793          	addi	a5,a5,1840 # 502074b8 <thread2_yield_times>
    50204d90:	439c                	lw	a5,0(a5)
    50204d92:	2785                	addiw	a5,a5,1
    50204d94:	0007871b          	sext.w	a4,a5
    50204d98:	00002797          	auipc	a5,0x2
    50204d9c:	72078793          	addi	a5,a5,1824 # 502074b8 <thread2_yield_times>
    50204da0:	c398                	sw	a4,0(a5)
    50204da2:	a81d                	j	50204dd8 <thread_yield+0xa6>
    50204da4:	00004717          	auipc	a4,0x4
    50204da8:	74c70713          	addi	a4,a4,1868 # 502094f0 <current_running>
    50204dac:	fe843783          	ld	a5,-24(s0)
    50204db0:	078e                	slli	a5,a5,0x3
    50204db2:	97ba                	add	a5,a5,a4
    50204db4:	00006717          	auipc	a4,0x6
    50204db8:	a0c70713          	addi	a4,a4,-1524 # 5020a7c0 <tcb>
    50204dbc:	e398                	sd	a4,0(a5)
    50204dbe:	00002797          	auipc	a5,0x2
    50204dc2:	6f678793          	addi	a5,a5,1782 # 502074b4 <thread1_yield_times>
    50204dc6:	439c                	lw	a5,0(a5)
    50204dc8:	2785                	addiw	a5,a5,1
    50204dca:	0007871b          	sext.w	a4,a5
    50204dce:	00002797          	auipc	a5,0x2
    50204dd2:	6e678793          	addi	a5,a5,1766 # 502074b4 <thread1_yield_times>
    50204dd6:	c398                	sw	a4,0(a5)
    50204dd8:	00004797          	auipc	a5,0x4
    50204ddc:	70878793          	addi	a5,a5,1800 # 502094e0 <pre_running>
    50204de0:	639c                	ld	a5,0(a5)
    50204de2:	4709                	li	a4,2
    50204de4:	10e7a023          	sw	a4,256(a5)
    50204de8:	00004717          	auipc	a4,0x4
    50204dec:	70870713          	addi	a4,a4,1800 # 502094f0 <current_running>
    50204df0:	fe843783          	ld	a5,-24(s0)
    50204df4:	078e                	slli	a5,a5,0x3
    50204df6:	97ba                	add	a5,a5,a4
    50204df8:	639c                	ld	a5,0(a5)
    50204dfa:	4705                	li	a4,1
    50204dfc:	10e7a023          	sw	a4,256(a5)
    50204e00:	00004717          	auipc	a4,0x4
    50204e04:	6f070713          	addi	a4,a4,1776 # 502094f0 <current_running>
    50204e08:	fe843783          	ld	a5,-24(s0)
    50204e0c:	078e                	slli	a5,a5,0x3
    50204e0e:	97ba                	add	a5,a5,a4
    50204e10:	639c                	ld	a5,0(a5)
    50204e12:	02078793          	addi	a5,a5,32
    50204e16:	853e                	mv	a0,a5
    50204e18:	fb8ff0ef          	jal	ra,502045d0 <list_del>
    50204e1c:	00004797          	auipc	a5,0x4
    50204e20:	6c478793          	addi	a5,a5,1732 # 502094e0 <pre_running>
    50204e24:	639c                	ld	a5,0(a5)
    50204e26:	02078793          	addi	a5,a5,32
    50204e2a:	00002597          	auipc	a1,0x2
    50204e2e:	61658593          	addi	a1,a1,1558 # 50207440 <ready_queue>
    50204e32:	853e                	mv	a0,a5
    50204e34:	f5aff0ef          	jal	ra,5020458e <list_add>
    50204e38:	00002797          	auipc	a5,0x2
    50204e3c:	68478793          	addi	a5,a5,1668 # 502074bc <thread_yield_times>
    50204e40:	439c                	lw	a5,0(a5)
    50204e42:	2785                	addiw	a5,a5,1
    50204e44:	0007871b          	sext.w	a4,a5
    50204e48:	00002797          	auipc	a5,0x2
    50204e4c:	67478793          	addi	a5,a5,1652 # 502074bc <thread_yield_times>
    50204e50:	c398                	sw	a4,0(a5)
    50204e52:	45a1                	li	a1,8
    50204e54:	4501                	li	a0,0
    50204e56:	e22fd0ef          	jal	ra,50202478 <screen_move_cursor>
    50204e5a:	00002797          	auipc	a5,0x2
    50204e5e:	65a78793          	addi	a5,a5,1626 # 502074b4 <thread1_yield_times>
    50204e62:	4398                	lw	a4,0(a5)
    50204e64:	00002797          	auipc	a5,0x2
    50204e68:	65478793          	addi	a5,a5,1620 # 502074b8 <thread2_yield_times>
    50204e6c:	4390                	lw	a2,0(a5)
    50204e6e:	00002797          	auipc	a5,0x2
    50204e72:	64e78793          	addi	a5,a5,1614 # 502074bc <thread_yield_times>
    50204e76:	439c                	lw	a5,0(a5)
    50204e78:	86be                	mv	a3,a5
    50204e7a:	85ba                	mv	a1,a4
    50204e7c:	00002517          	auipc	a0,0x2
    50204e80:	1cc50513          	addi	a0,a0,460 # 50207048 <__FUNCTION__.1397+0x10>
    50204e84:	7a8010ef          	jal	ra,5020662c <printk>
    50204e88:	00004797          	auipc	a5,0x4
    50204e8c:	65878793          	addi	a5,a5,1624 # 502094e0 <pre_running>
    50204e90:	6394                	ld	a3,0(a5)
    50204e92:	00004717          	auipc	a4,0x4
    50204e96:	65e70713          	addi	a4,a4,1630 # 502094f0 <current_running>
    50204e9a:	fe843783          	ld	a5,-24(s0)
    50204e9e:	078e                	slli	a5,a5,0x3
    50204ea0:	97ba                	add	a5,a5,a4
    50204ea2:	639c                	ld	a5,0(a5)
    50204ea4:	85be                	mv	a1,a5
    50204ea6:	8536                	mv	a0,a3
    50204ea8:	9ccfc0ef          	jal	ra,50201074 <switch_to>
    50204eac:	0001                	nop
    50204eae:	60e2                	ld	ra,24(sp)
    50204eb0:	6442                	ld	s0,16(sp)
    50204eb2:	6105                	addi	sp,sp,32
    50204eb4:	8082                	ret

0000000050204eb6 <thread_create>:
    50204eb6:	711d                	addi	sp,sp,-96
    50204eb8:	ec86                	sd	ra,88(sp)
    50204eba:	e8a2                	sd	s0,80(sp)
    50204ebc:	1080                	addi	s0,sp,96
    50204ebe:	faa43c23          	sd	a0,-72(s0)
    50204ec2:	fab43823          	sd	a1,-80(s0)
    50204ec6:	fac43423          	sd	a2,-88(s0)
    50204eca:	fad43023          	sd	a3,-96(s0)
    50204ece:	b16fc0ef          	jal	ra,502011e4 <get_current_cpu_id>
    50204ed2:	fea43423          	sd	a0,-24(s0)
    50204ed6:	00004717          	auipc	a4,0x4
    50204eda:	61a70713          	addi	a4,a4,1562 # 502094f0 <current_running>
    50204ede:	fe843783          	ld	a5,-24(s0)
    50204ee2:	078e                	slli	a5,a5,0x3
    50204ee4:	97ba                	add	a5,a5,a4
    50204ee6:	639c                	ld	a5,0(a5)
    50204ee8:	0e07a703          	lw	a4,224(a5)
    50204eec:	2705                	addiw	a4,a4,1
    50204eee:	2701                	sext.w	a4,a4
    50204ef0:	0ee7a023          	sw	a4,224(a5)
    50204ef4:	00002797          	auipc	a5,0x2
    50204ef8:	5bc78793          	addi	a5,a5,1468 # 502074b0 <thread_idx>
    50204efc:	4398                	lw	a4,0(a5)
    50204efe:	11800793          	li	a5,280
    50204f02:	02f70733          	mul	a4,a4,a5
    50204f06:	00006797          	auipc	a5,0x6
    50204f0a:	8ba78793          	addi	a5,a5,-1862 # 5020a7c0 <tcb>
    50204f0e:	97ba                	add	a5,a5,a4
    50204f10:	fef43023          	sd	a5,-32(s0)
    50204f14:	fe043783          	ld	a5,-32(s0)
    50204f18:	4709                	li	a4,2
    50204f1a:	10e7a023          	sw	a4,256(a5)
    50204f1e:	00004717          	auipc	a4,0x4
    50204f22:	5d270713          	addi	a4,a4,1490 # 502094f0 <current_running>
    50204f26:	fe843783          	ld	a5,-24(s0)
    50204f2a:	078e                	slli	a5,a5,0x3
    50204f2c:	97ba                	add	a5,a5,a4
    50204f2e:	639c                	ld	a5,0(a5)
    50204f30:	0e07a703          	lw	a4,224(a5)
    50204f34:	fe043783          	ld	a5,-32(s0)
    50204f38:	0ce7ae23          	sw	a4,220(a5)
    50204f3c:	00002797          	auipc	a5,0x2
    50204f40:	57478793          	addi	a5,a5,1396 # 502074b0 <thread_idx>
    50204f44:	439c                	lw	a5,0(a5)
    50204f46:	0017871b          	addiw	a4,a5,1
    50204f4a:	0007069b          	sext.w	a3,a4
    50204f4e:	00002717          	auipc	a4,0x2
    50204f52:	56270713          	addi	a4,a4,1378 # 502074b0 <thread_idx>
    50204f56:	c314                	sw	a3,0(a4)
    50204f58:	fe043703          	ld	a4,-32(s0)
    50204f5c:	0ef72223          	sw	a5,228(a4)
    50204f60:	4505                	li	a0,1
    50204f62:	f2dfd0ef          	jal	ra,50202e8e <allocKernelPage>
    50204f66:	872a                	mv	a4,a0
    50204f68:	6785                	lui	a5,0x1
    50204f6a:	97ba                	add	a5,a5,a4
    50204f6c:	fcf43c23          	sd	a5,-40(s0)
    50204f70:	4505                	li	a0,1
    50204f72:	f69fd0ef          	jal	ra,50202eda <allocUserPage>
    50204f76:	872a                	mv	a4,a0
    50204f78:	6785                	lui	a5,0x1
    50204f7a:	97ba                	add	a5,a5,a4
    50204f7c:	fcf43823          	sd	a5,-48(s0)
    50204f80:	fb843783          	ld	a5,-72(s0)
    50204f84:	fcf43423          	sd	a5,-56(s0)
    50204f88:	fe043683          	ld	a3,-32(s0)
    50204f8c:	fc843603          	ld	a2,-56(s0)
    50204f90:	fd043583          	ld	a1,-48(s0)
    50204f94:	fd843503          	ld	a0,-40(s0)
    50204f98:	cf5ff0ef          	jal	ra,50204c8c <init_pcb_stack>
    50204f9c:	fd843783          	ld	a5,-40(s0)
    50204fa0:	ee078793          	addi	a5,a5,-288 # ee0 <TEXT_START-0x50200120>
    50204fa4:	fcf43023          	sd	a5,-64(s0)
    50204fa8:	fb043703          	ld	a4,-80(s0)
    50204fac:	fc043783          	ld	a5,-64(s0)
    50204fb0:	ebb8                	sd	a4,80(a5)
    50204fb2:	fa843703          	ld	a4,-88(s0)
    50204fb6:	fc043783          	ld	a5,-64(s0)
    50204fba:	efb8                	sd	a4,88(a5)
    50204fbc:	fa043703          	ld	a4,-96(s0)
    50204fc0:	fc043783          	ld	a5,-64(s0)
    50204fc4:	f3b8                	sd	a4,96(a5)
    50204fc6:	fe043783          	ld	a5,-32(s0)
    50204fca:	02078793          	addi	a5,a5,32
    50204fce:	00002597          	auipc	a1,0x2
    50204fd2:	47258593          	addi	a1,a1,1138 # 50207440 <ready_queue>
    50204fd6:	853e                	mv	a0,a5
    50204fd8:	db6ff0ef          	jal	ra,5020458e <list_add>
    50204fdc:	0001                	nop
    50204fde:	60e6                	ld	ra,88(sp)
    50204fe0:	6446                	ld	s0,80(sp)
    50204fe2:	6125                	addi	sp,sp,96
    50204fe4:	8082                	ret

0000000050204fe6 <do_kill>:
    50204fe6:	7139                	addi	sp,sp,-64
    50204fe8:	fc06                	sd	ra,56(sp)
    50204fea:	f822                	sd	s0,48(sp)
    50204fec:	0080                	addi	s0,sp,64
    50204fee:	87aa                	mv	a5,a0
    50204ff0:	fcf42623          	sw	a5,-52(s0)
    50204ff4:	fe042623          	sw	zero,-20(s0)
    50204ff8:	fe042623          	sw	zero,-20(s0)
    50204ffc:	ac05                	j	5020522c <do_kill+0x246>
    50204ffe:	fec42703          	lw	a4,-20(s0)
    50205002:	11800793          	li	a5,280
    50205006:	02f707b3          	mul	a5,a4,a5
    5020500a:	04078713          	addi	a4,a5,64
    5020500e:	00008797          	auipc	a5,0x8
    50205012:	ab278793          	addi	a5,a5,-1358 # 5020cac0 <pcb>
    50205016:	97ba                	add	a5,a5,a4
    50205018:	07b1                	addi	a5,a5,12
    5020501a:	853e                	mv	a0,a5
    5020501c:	88cfe0ef          	jal	ra,502030a8 <spin_lock_acquire>
    50205020:	00008717          	auipc	a4,0x8
    50205024:	aa070713          	addi	a4,a4,-1376 # 5020cac0 <pcb>
    50205028:	fec42683          	lw	a3,-20(s0)
    5020502c:	11800793          	li	a5,280
    50205030:	02f687b3          	mul	a5,a3,a5
    50205034:	97ba                	add	a5,a5,a4
    50205036:	0d87a703          	lw	a4,216(a5)
    5020503a:	fcc42783          	lw	a5,-52(s0)
    5020503e:	2781                	sext.w	a5,a5
    50205040:	1ce79063          	bne	a5,a4,50205200 <do_kill+0x21a>
    50205044:	fcc42783          	lw	a5,-52(s0)
    50205048:	2781                	sext.w	a5,a5
    5020504a:	cb81                	beqz	a5,5020505a <do_kill+0x74>
    5020504c:	fcc42783          	lw	a5,-52(s0)
    50205050:	0007871b          	sext.w	a4,a5
    50205054:	4785                	li	a5,1
    50205056:	02f71563          	bne	a4,a5,50205080 <do_kill+0x9a>
    5020505a:	fec42703          	lw	a4,-20(s0)
    5020505e:	11800793          	li	a5,280
    50205062:	02f707b3          	mul	a5,a4,a5
    50205066:	04078713          	addi	a4,a5,64
    5020506a:	00008797          	auipc	a5,0x8
    5020506e:	a5678793          	addi	a5,a5,-1450 # 5020cac0 <pcb>
    50205072:	97ba                	add	a5,a5,a4
    50205074:	07b1                	addi	a5,a5,12
    50205076:	853e                	mv	a0,a5
    50205078:	86afe0ef          	jal	ra,502030e2 <spin_lock_release>
    5020507c:	57fd                	li	a5,-1
    5020507e:	a2d1                	j	50205242 <do_kill+0x25c>
    50205080:	fec42703          	lw	a4,-20(s0)
    50205084:	11800793          	li	a5,280
    50205088:	02f70733          	mul	a4,a4,a5
    5020508c:	00008797          	auipc	a5,0x8
    50205090:	a3478793          	addi	a5,a5,-1484 # 5020cac0 <pcb>
    50205094:	97ba                	add	a5,a5,a4
    50205096:	fef43023          	sd	a5,-32(s0)
    5020509a:	fe043783          	ld	a5,-32(s0)
    5020509e:	1007a783          	lw	a5,256(a5)
    502050a2:	873e                	mv	a4,a5
    502050a4:	4789                	li	a5,2
    502050a6:	00f70763          	beq	a4,a5,502050b4 <do_kill+0xce>
    502050aa:	fe043783          	ld	a5,-32(s0)
    502050ae:	1007a783          	lw	a5,256(a5)
    502050b2:	eb81                	bnez	a5,502050c2 <do_kill+0xdc>
    502050b4:	fe043783          	ld	a5,-32(s0)
    502050b8:	02078793          	addi	a5,a5,32
    502050bc:	853e                	mv	a0,a5
    502050be:	d12ff0ef          	jal	ra,502045d0 <list_del>
    502050c2:	fe042423          	sw	zero,-24(s0)
    502050c6:	a859                	j	5020515c <do_kill+0x176>
    502050c8:	fe043703          	ld	a4,-32(s0)
    502050cc:	fe842783          	lw	a5,-24(s0)
    502050d0:	07a9                	addi	a5,a5,10
    502050d2:	078e                	slli	a5,a5,0x3
    502050d4:	97ba                	add	a5,a5,a4
    502050d6:	679c                	ld	a5,8(a5)
    502050d8:	07c1                	addi	a5,a5,16
    502050da:	853e                	mv	a0,a5
    502050dc:	c62ff0ef          	jal	ra,5020453e <list_is_empty>
    502050e0:	87aa                	mv	a5,a0
    502050e2:	e7a9                	bnez	a5,5020512c <do_kill+0x146>
    502050e4:	fe043703          	ld	a4,-32(s0)
    502050e8:	fe842783          	lw	a5,-24(s0)
    502050ec:	07a9                	addi	a5,a5,10
    502050ee:	078e                	slli	a5,a5,0x3
    502050f0:	97ba                	add	a5,a5,a4
    502050f2:	679c                	ld	a5,8(a5)
    502050f4:	6b9c                	ld	a5,16(a5)
    502050f6:	1781                	addi	a5,a5,-32
    502050f8:	fcf43823          	sd	a5,-48(s0)
    502050fc:	fe043703          	ld	a4,-32(s0)
    50205100:	fe842783          	lw	a5,-24(s0)
    50205104:	07a9                	addi	a5,a5,10
    50205106:	078e                	slli	a5,a5,0x3
    50205108:	97ba                	add	a5,a5,a4
    5020510a:	679c                	ld	a5,8(a5)
    5020510c:	6b9c                	ld	a5,16(a5)
    5020510e:	853e                	mv	a0,a5
    50205110:	cc0ff0ef          	jal	ra,502045d0 <list_del>
    50205114:	fd043783          	ld	a5,-48(s0)
    50205118:	02078793          	addi	a5,a5,32
    5020511c:	00002597          	auipc	a1,0x2
    50205120:	32458593          	addi	a1,a1,804 # 50207440 <ready_queue>
    50205124:	853e                	mv	a0,a5
    50205126:	c68ff0ef          	jal	ra,5020458e <list_add>
    5020512a:	a819                	j	50205140 <do_kill+0x15a>
    5020512c:	fe043703          	ld	a4,-32(s0)
    50205130:	fe842783          	lw	a5,-24(s0)
    50205134:	07a9                	addi	a5,a5,10
    50205136:	078e                	slli	a5,a5,0x3
    50205138:	97ba                	add	a5,a5,a4
    5020513a:	679c                	ld	a5,8(a5)
    5020513c:	0007a023          	sw	zero,0(a5)
    50205140:	fe043703          	ld	a4,-32(s0)
    50205144:	fe842783          	lw	a5,-24(s0)
    50205148:	07a9                	addi	a5,a5,10
    5020514a:	078e                	slli	a5,a5,0x3
    5020514c:	97ba                	add	a5,a5,a4
    5020514e:	0007b423          	sd	zero,8(a5)
    50205152:	fe842783          	lw	a5,-24(s0)
    50205156:	2785                	addiw	a5,a5,1
    50205158:	fef42423          	sw	a5,-24(s0)
    5020515c:	fe043783          	ld	a5,-32(s0)
    50205160:	47b8                	lw	a4,72(a5)
    50205162:	fe842783          	lw	a5,-24(s0)
    50205166:	2781                	sext.w	a5,a5
    50205168:	f6e7c0e3          	blt	a5,a4,502050c8 <do_kill+0xe2>
    5020516c:	a099                	j	502051b2 <do_kill+0x1cc>
    5020516e:	fe043783          	ld	a5,-32(s0)
    50205172:	7b9c                	ld	a5,48(a5)
    50205174:	1781                	addi	a5,a5,-32
    50205176:	fcf43c23          	sd	a5,-40(s0)
    5020517a:	fd843783          	ld	a5,-40(s0)
    5020517e:	1007a783          	lw	a5,256(a5)
    50205182:	eb85                	bnez	a5,502051b2 <do_kill+0x1cc>
    50205184:	fd843783          	ld	a5,-40(s0)
    50205188:	4709                	li	a4,2
    5020518a:	10e7a023          	sw	a4,256(a5)
    5020518e:	fd843783          	ld	a5,-40(s0)
    50205192:	02078793          	addi	a5,a5,32
    50205196:	853e                	mv	a0,a5
    50205198:	c38ff0ef          	jal	ra,502045d0 <list_del>
    5020519c:	fd843783          	ld	a5,-40(s0)
    502051a0:	02078793          	addi	a5,a5,32
    502051a4:	00002597          	auipc	a1,0x2
    502051a8:	29c58593          	addi	a1,a1,668 # 50207440 <ready_queue>
    502051ac:	853e                	mv	a0,a5
    502051ae:	be0ff0ef          	jal	ra,5020458e <list_add>
    502051b2:	fe043783          	ld	a5,-32(s0)
    502051b6:	03078793          	addi	a5,a5,48
    502051ba:	853e                	mv	a0,a5
    502051bc:	b82ff0ef          	jal	ra,5020453e <list_is_empty>
    502051c0:	87aa                	mv	a5,a0
    502051c2:	d7d5                	beqz	a5,5020516e <do_kill+0x188>
    502051c4:	fe043783          	ld	a5,-32(s0)
    502051c8:	470d                	li	a4,3
    502051ca:	10e7a023          	sw	a4,256(a5)
    502051ce:	fe043783          	ld	a5,-32(s0)
    502051d2:	0c07ac23          	sw	zero,216(a5)
    502051d6:	fec42703          	lw	a4,-20(s0)
    502051da:	11800793          	li	a5,280
    502051de:	02f707b3          	mul	a5,a4,a5
    502051e2:	04078713          	addi	a4,a5,64
    502051e6:	00008797          	auipc	a5,0x8
    502051ea:	8da78793          	addi	a5,a5,-1830 # 5020cac0 <pcb>
    502051ee:	97ba                	add	a5,a5,a4
    502051f0:	07b1                	addi	a5,a5,12
    502051f2:	853e                	mv	a0,a5
    502051f4:	eeffd0ef          	jal	ra,502030e2 <spin_lock_release>
    502051f8:	c74ff0ef          	jal	ra,5020466c <do_scheduler>
    502051fc:	4785                	li	a5,1
    502051fe:	a091                	j	50205242 <do_kill+0x25c>
    50205200:	fec42703          	lw	a4,-20(s0)
    50205204:	11800793          	li	a5,280
    50205208:	02f707b3          	mul	a5,a4,a5
    5020520c:	04078713          	addi	a4,a5,64
    50205210:	00008797          	auipc	a5,0x8
    50205214:	8b078793          	addi	a5,a5,-1872 # 5020cac0 <pcb>
    50205218:	97ba                	add	a5,a5,a4
    5020521a:	07b1                	addi	a5,a5,12
    5020521c:	853e                	mv	a0,a5
    5020521e:	ec5fd0ef          	jal	ra,502030e2 <spin_lock_release>
    50205222:	fec42783          	lw	a5,-20(s0)
    50205226:	2785                	addiw	a5,a5,1
    50205228:	fef42623          	sw	a5,-20(s0)
    5020522c:	00002797          	auipc	a5,0x2
    50205230:	26c78793          	addi	a5,a5,620 # 50207498 <process_id>
    50205234:	4398                	lw	a4,0(a5)
    50205236:	fec42783          	lw	a5,-20(s0)
    5020523a:	2781                	sext.w	a5,a5
    5020523c:	dce7c1e3          	blt	a5,a4,50204ffe <do_kill+0x18>
    50205240:	4781                	li	a5,0
    50205242:	853e                	mv	a0,a5
    50205244:	70e2                	ld	ra,56(sp)
    50205246:	7442                	ld	s0,48(sp)
    50205248:	6121                	addi	sp,sp,64
    5020524a:	8082                	ret

000000005020524c <do_exit>:
    5020524c:	1101                	addi	sp,sp,-32
    5020524e:	ec06                	sd	ra,24(sp)
    50205250:	e822                	sd	s0,16(sp)
    50205252:	1000                	addi	s0,sp,32
    50205254:	f91fb0ef          	jal	ra,502011e4 <get_current_cpu_id>
    50205258:	fea43423          	sd	a0,-24(s0)
    5020525c:	00004717          	auipc	a4,0x4
    50205260:	29470713          	addi	a4,a4,660 # 502094f0 <current_running>
    50205264:	fe843783          	ld	a5,-24(s0)
    50205268:	078e                	slli	a5,a5,0x3
    5020526a:	97ba                	add	a5,a5,a4
    5020526c:	639c                	ld	a5,0(a5)
    5020526e:	0d87a783          	lw	a5,216(a5)
    50205272:	853e                	mv	a0,a5
    50205274:	d73ff0ef          	jal	ra,50204fe6 <do_kill>
    50205278:	0001                	nop
    5020527a:	60e2                	ld	ra,24(sp)
    5020527c:	6442                	ld	s0,16(sp)
    5020527e:	6105                	addi	sp,sp,32
    50205280:	8082                	ret

0000000050205282 <do_waitpid>:
    50205282:	7139                	addi	sp,sp,-64
    50205284:	fc06                	sd	ra,56(sp)
    50205286:	f822                	sd	s0,48(sp)
    50205288:	0080                	addi	s0,sp,64
    5020528a:	87aa                	mv	a5,a0
    5020528c:	fcf42623          	sw	a5,-52(s0)
    50205290:	f55fb0ef          	jal	ra,502011e4 <get_current_cpu_id>
    50205294:	fea43023          	sd	a0,-32(s0)
    50205298:	fe042623          	sw	zero,-20(s0)
    5020529c:	a249                	j	5020541e <do_waitpid+0x19c>
    5020529e:	fec42703          	lw	a4,-20(s0)
    502052a2:	11800793          	li	a5,280
    502052a6:	02f707b3          	mul	a5,a4,a5
    502052aa:	04078713          	addi	a4,a5,64
    502052ae:	00008797          	auipc	a5,0x8
    502052b2:	81278793          	addi	a5,a5,-2030 # 5020cac0 <pcb>
    502052b6:	97ba                	add	a5,a5,a4
    502052b8:	07b1                	addi	a5,a5,12
    502052ba:	853e                	mv	a0,a5
    502052bc:	dedfd0ef          	jal	ra,502030a8 <spin_lock_acquire>
    502052c0:	00008717          	auipc	a4,0x8
    502052c4:	80070713          	addi	a4,a4,-2048 # 5020cac0 <pcb>
    502052c8:	fec42683          	lw	a3,-20(s0)
    502052cc:	11800793          	li	a5,280
    502052d0:	02f687b3          	mul	a5,a3,a5
    502052d4:	97ba                	add	a5,a5,a4
    502052d6:	0d87a703          	lw	a4,216(a5)
    502052da:	fcc42783          	lw	a5,-52(s0)
    502052de:	2781                	sext.w	a5,a5
    502052e0:	10e79963          	bne	a5,a4,502053f2 <do_waitpid+0x170>
    502052e4:	fcc42783          	lw	a5,-52(s0)
    502052e8:	2781                	sext.w	a5,a5
    502052ea:	cb81                	beqz	a5,502052fa <do_waitpid+0x78>
    502052ec:	fcc42783          	lw	a5,-52(s0)
    502052f0:	0007871b          	sext.w	a4,a5
    502052f4:	4785                	li	a5,1
    502052f6:	02f71563          	bne	a4,a5,50205320 <do_waitpid+0x9e>
    502052fa:	fec42703          	lw	a4,-20(s0)
    502052fe:	11800793          	li	a5,280
    50205302:	02f707b3          	mul	a5,a4,a5
    50205306:	04078713          	addi	a4,a5,64
    5020530a:	00007797          	auipc	a5,0x7
    5020530e:	7b678793          	addi	a5,a5,1974 # 5020cac0 <pcb>
    50205312:	97ba                	add	a5,a5,a4
    50205314:	07b1                	addi	a5,a5,12
    50205316:	853e                	mv	a0,a5
    50205318:	dcbfd0ef          	jal	ra,502030e2 <spin_lock_release>
    5020531c:	4781                	li	a5,0
    5020531e:	aa19                	j	50205434 <do_waitpid+0x1b2>
    50205320:	fec42703          	lw	a4,-20(s0)
    50205324:	11800793          	li	a5,280
    50205328:	02f70733          	mul	a4,a4,a5
    5020532c:	00007797          	auipc	a5,0x7
    50205330:	79478793          	addi	a5,a5,1940 # 5020cac0 <pcb>
    50205334:	97ba                	add	a5,a5,a4
    50205336:	fcf43c23          	sd	a5,-40(s0)
    5020533a:	00007717          	auipc	a4,0x7
    5020533e:	78670713          	addi	a4,a4,1926 # 5020cac0 <pcb>
    50205342:	fec42683          	lw	a3,-20(s0)
    50205346:	11800793          	li	a5,280
    5020534a:	02f687b3          	mul	a5,a3,a5
    5020534e:	97ba                	add	a5,a5,a4
    50205350:	1007a783          	lw	a5,256(a5)
    50205354:	873e                	mv	a4,a5
    50205356:	478d                	li	a5,3
    50205358:	08f70d63          	beq	a4,a5,502053f2 <do_waitpid+0x170>
    5020535c:	fe043783          	ld	a5,-32(s0)
    50205360:	00379713          	slli	a4,a5,0x3
    50205364:	00004797          	auipc	a5,0x4
    50205368:	06c78793          	addi	a5,a5,108 # 502093d0 <current_running_lock>
    5020536c:	97ba                	add	a5,a5,a4
    5020536e:	853e                	mv	a0,a5
    50205370:	d39fd0ef          	jal	ra,502030a8 <spin_lock_acquire>
    50205374:	00004717          	auipc	a4,0x4
    50205378:	17c70713          	addi	a4,a4,380 # 502094f0 <current_running>
    5020537c:	fe043783          	ld	a5,-32(s0)
    50205380:	078e                	slli	a5,a5,0x3
    50205382:	97ba                	add	a5,a5,a4
    50205384:	639c                	ld	a5,0(a5)
    50205386:	1007a023          	sw	zero,256(a5)
    5020538a:	00004717          	auipc	a4,0x4
    5020538e:	16670713          	addi	a4,a4,358 # 502094f0 <current_running>
    50205392:	fe043783          	ld	a5,-32(s0)
    50205396:	078e                	slli	a5,a5,0x3
    50205398:	97ba                	add	a5,a5,a4
    5020539a:	639c                	ld	a5,0(a5)
    5020539c:	02078713          	addi	a4,a5,32
    502053a0:	fd843783          	ld	a5,-40(s0)
    502053a4:	03078793          	addi	a5,a5,48
    502053a8:	85be                	mv	a1,a5
    502053aa:	853a                	mv	a0,a4
    502053ac:	9e2ff0ef          	jal	ra,5020458e <list_add>
    502053b0:	fe043783          	ld	a5,-32(s0)
    502053b4:	00379713          	slli	a4,a5,0x3
    502053b8:	00004797          	auipc	a5,0x4
    502053bc:	01878793          	addi	a5,a5,24 # 502093d0 <current_running_lock>
    502053c0:	97ba                	add	a5,a5,a4
    502053c2:	853e                	mv	a0,a5
    502053c4:	d1ffd0ef          	jal	ra,502030e2 <spin_lock_release>
    502053c8:	fec42703          	lw	a4,-20(s0)
    502053cc:	11800793          	li	a5,280
    502053d0:	02f707b3          	mul	a5,a4,a5
    502053d4:	04078713          	addi	a4,a5,64
    502053d8:	00007797          	auipc	a5,0x7
    502053dc:	6e878793          	addi	a5,a5,1768 # 5020cac0 <pcb>
    502053e0:	97ba                	add	a5,a5,a4
    502053e2:	07b1                	addi	a5,a5,12
    502053e4:	853e                	mv	a0,a5
    502053e6:	cfdfd0ef          	jal	ra,502030e2 <spin_lock_release>
    502053ea:	a82ff0ef          	jal	ra,5020466c <do_scheduler>
    502053ee:	4785                	li	a5,1
    502053f0:	a091                	j	50205434 <do_waitpid+0x1b2>
    502053f2:	fec42703          	lw	a4,-20(s0)
    502053f6:	11800793          	li	a5,280
    502053fa:	02f707b3          	mul	a5,a4,a5
    502053fe:	04078713          	addi	a4,a5,64
    50205402:	00007797          	auipc	a5,0x7
    50205406:	6be78793          	addi	a5,a5,1726 # 5020cac0 <pcb>
    5020540a:	97ba                	add	a5,a5,a4
    5020540c:	07b1                	addi	a5,a5,12
    5020540e:	853e                	mv	a0,a5
    50205410:	cd3fd0ef          	jal	ra,502030e2 <spin_lock_release>
    50205414:	fec42783          	lw	a5,-20(s0)
    50205418:	2785                	addiw	a5,a5,1
    5020541a:	fef42623          	sw	a5,-20(s0)
    5020541e:	00002797          	auipc	a5,0x2
    50205422:	07a78793          	addi	a5,a5,122 # 50207498 <process_id>
    50205426:	4398                	lw	a4,0(a5)
    50205428:	fec42783          	lw	a5,-20(s0)
    5020542c:	2781                	sext.w	a5,a5
    5020542e:	e6e7c8e3          	blt	a5,a4,5020529e <do_waitpid+0x1c>
    50205432:	4781                	li	a5,0
    50205434:	853e                	mv	a0,a5
    50205436:	70e2                	ld	ra,56(sp)
    50205438:	7442                	ld	s0,48(sp)
    5020543a:	6121                	addi	sp,sp,64
    5020543c:	8082                	ret

000000005020543e <do_exec>:
    5020543e:	7175                	addi	sp,sp,-144
    50205440:	e506                	sd	ra,136(sp)
    50205442:	e122                	sd	s0,128(sp)
    50205444:	0900                	addi	s0,sp,144
    50205446:	f8a43423          	sd	a0,-120(s0)
    5020544a:	87ae                	mv	a5,a1
    5020544c:	f6c43c23          	sd	a2,-136(s0)
    50205450:	f8f42223          	sw	a5,-124(s0)
    50205454:	00002797          	auipc	a5,0x2
    50205458:	04478793          	addi	a5,a5,68 # 50207498 <process_id>
    5020545c:	439c                	lw	a5,0(a5)
    5020545e:	2785                	addiw	a5,a5,1
    50205460:	0007871b          	sext.w	a4,a5
    50205464:	00002797          	auipc	a5,0x2
    50205468:	03478793          	addi	a5,a5,52 # 50207498 <process_id>
    5020546c:	c398                	sw	a4,0(a5)
    5020546e:	fc042623          	sw	zero,-52(s0)
    50205472:	fe042623          	sw	zero,-20(s0)
    50205476:	fe042623          	sw	zero,-20(s0)
    5020547a:	aec5                	j	5020586a <do_exec+0x42c>
    5020547c:	fec42703          	lw	a4,-20(s0)
    50205480:	87ba                	mv	a5,a4
    50205482:	0786                	slli	a5,a5,0x1
    50205484:	97ba                	add	a5,a5,a4
    50205486:	0792                	slli	a5,a5,0x4
    50205488:	00004717          	auipc	a4,0x4
    5020548c:	94870713          	addi	a4,a4,-1720 # 50208dd0 <tasks>
    50205490:	97ba                	add	a5,a5,a4
    50205492:	85be                	mv	a1,a5
    50205494:	f8843503          	ld	a0,-120(s0)
    50205498:	3b2010ef          	jal	ra,5020684a <strcmp>
    5020549c:	87aa                	mv	a5,a0
    5020549e:	3c079163          	bnez	a5,50205860 <do_exec+0x422>
    502054a2:	00004697          	auipc	a3,0x4
    502054a6:	92e68693          	addi	a3,a3,-1746 # 50208dd0 <tasks>
    502054aa:	fec42703          	lw	a4,-20(s0)
    502054ae:	87ba                	mv	a5,a4
    502054b0:	0786                	slli	a5,a5,0x1
    502054b2:	97ba                	add	a5,a5,a4
    502054b4:	0792                	slli	a5,a5,0x4
    502054b6:	97b6                	add	a5,a5,a3
    502054b8:	779c                	ld	a5,40(a5)
    502054ba:	fcf43023          	sd	a5,-64(s0)
    502054be:	fe042423          	sw	zero,-24(s0)
    502054c2:	ae41                	j	50205852 <do_exec+0x414>
    502054c4:	fe842703          	lw	a4,-24(s0)
    502054c8:	11800793          	li	a5,280
    502054cc:	02f707b3          	mul	a5,a4,a5
    502054d0:	04078713          	addi	a4,a5,64
    502054d4:	00007797          	auipc	a5,0x7
    502054d8:	5ec78793          	addi	a5,a5,1516 # 5020cac0 <pcb>
    502054dc:	97ba                	add	a5,a5,a4
    502054de:	07b1                	addi	a5,a5,12
    502054e0:	853e                	mv	a0,a5
    502054e2:	bc7fd0ef          	jal	ra,502030a8 <spin_lock_acquire>
    502054e6:	00007717          	auipc	a4,0x7
    502054ea:	5da70713          	addi	a4,a4,1498 # 5020cac0 <pcb>
    502054ee:	fe842683          	lw	a3,-24(s0)
    502054f2:	11800793          	li	a5,280
    502054f6:	02f687b3          	mul	a5,a3,a5
    502054fa:	97ba                	add	a5,a5,a4
    502054fc:	0d87a783          	lw	a5,216(a5)
    50205500:	32079363          	bnez	a5,50205826 <do_exec+0x3e8>
    50205504:	fe842703          	lw	a4,-24(s0)
    50205508:	11800793          	li	a5,280
    5020550c:	02f707b3          	mul	a5,a4,a5
    50205510:	03078713          	addi	a4,a5,48
    50205514:	00007797          	auipc	a5,0x7
    50205518:	5ac78793          	addi	a5,a5,1452 # 5020cac0 <pcb>
    5020551c:	97ba                	add	a5,a5,a4
    5020551e:	853e                	mv	a0,a5
    50205520:	848ff0ef          	jal	ra,50204568 <list_init>
    50205524:	00002797          	auipc	a5,0x2
    50205528:	f7478793          	addi	a5,a5,-140 # 50207498 <process_id>
    5020552c:	4398                	lw	a4,0(a5)
    5020552e:	00007697          	auipc	a3,0x7
    50205532:	59268693          	addi	a3,a3,1426 # 5020cac0 <pcb>
    50205536:	fe842603          	lw	a2,-24(s0)
    5020553a:	11800793          	li	a5,280
    5020553e:	02f607b3          	mul	a5,a2,a5
    50205542:	97b6                	add	a5,a5,a3
    50205544:	0ce7ac23          	sw	a4,216(a5)
    50205548:	00007717          	auipc	a4,0x7
    5020554c:	57870713          	addi	a4,a4,1400 # 5020cac0 <pcb>
    50205550:	fe842683          	lw	a3,-24(s0)
    50205554:	11800793          	li	a5,280
    50205558:	02f687b3          	mul	a5,a3,a5
    5020555c:	97ba                	add	a5,a5,a4
    5020555e:	4709                	li	a4,2
    50205560:	10e7a023          	sw	a4,256(a5)
    50205564:	fec42703          	lw	a4,-20(s0)
    50205568:	87ba                	mv	a5,a4
    5020556a:	0786                	slli	a5,a5,0x1
    5020556c:	97ba                	add	a5,a5,a4
    5020556e:	0792                	slli	a5,a5,0x4
    50205570:	00004717          	auipc	a4,0x4
    50205574:	86070713          	addi	a4,a4,-1952 # 50208dd0 <tasks>
    50205578:	973e                	add	a4,a4,a5
    5020557a:	00007697          	auipc	a3,0x7
    5020557e:	54668693          	addi	a3,a3,1350 # 5020cac0 <pcb>
    50205582:	fe842603          	lw	a2,-24(s0)
    50205586:	11800793          	li	a5,280
    5020558a:	02f607b3          	mul	a5,a2,a5
    5020558e:	97b6                	add	a5,a5,a3
    50205590:	fff8                	sd	a4,248(a5)
    50205592:	c53fb0ef          	jal	ra,502011e4 <get_current_cpu_id>
    50205596:	87aa                	mv	a5,a0
    50205598:	00004717          	auipc	a4,0x4
    5020559c:	f5870713          	addi	a4,a4,-168 # 502094f0 <current_running>
    502055a0:	078e                	slli	a5,a5,0x3
    502055a2:	97ba                	add	a5,a5,a4
    502055a4:	639c                	ld	a5,0(a5)
    502055a6:	0f07a703          	lw	a4,240(a5)
    502055aa:	00007697          	auipc	a3,0x7
    502055ae:	51668693          	addi	a3,a3,1302 # 5020cac0 <pcb>
    502055b2:	fe842603          	lw	a2,-24(s0)
    502055b6:	11800793          	li	a5,280
    502055ba:	02f607b3          	mul	a5,a2,a5
    502055be:	97b6                	add	a5,a5,a3
    502055c0:	0ee7a823          	sw	a4,240(a5)
    502055c4:	4505                	li	a0,1
    502055c6:	8c9fd0ef          	jal	ra,50202e8e <allocKernelPage>
    502055ca:	872a                	mv	a4,a0
    502055cc:	6785                	lui	a5,0x1
    502055ce:	97ba                	add	a5,a5,a4
    502055d0:	faf43c23          	sd	a5,-72(s0)
    502055d4:	4505                	li	a0,1
    502055d6:	905fd0ef          	jal	ra,50202eda <allocUserPage>
    502055da:	872a                	mv	a4,a0
    502055dc:	6785                	lui	a5,0x1
    502055de:	97ba                	add	a5,a5,a4
    502055e0:	faf43823          	sd	a5,-80(s0)
    502055e4:	f8442783          	lw	a5,-124(s0)
    502055e8:	078e                	slli	a5,a5,0x3
    502055ea:	fb043703          	ld	a4,-80(s0)
    502055ee:	40f707b3          	sub	a5,a4,a5
    502055f2:	faf43423          	sd	a5,-88(s0)
    502055f6:	fe842703          	lw	a4,-24(s0)
    502055fa:	11800793          	li	a5,280
    502055fe:	02f707b3          	mul	a5,a4,a5
    50205602:	02078713          	addi	a4,a5,32 # 1020 <TEXT_START-0x501fffe0>
    50205606:	00007797          	auipc	a5,0x7
    5020560a:	4ba78793          	addi	a5,a5,1210 # 5020cac0 <pcb>
    5020560e:	97ba                	add	a5,a5,a4
    50205610:	00002597          	auipc	a1,0x2
    50205614:	e3058593          	addi	a1,a1,-464 # 50207440 <ready_queue>
    50205618:	853e                	mv	a0,a5
    5020561a:	f75fe0ef          	jal	ra,5020458e <list_add>
    5020561e:	fa843783          	ld	a5,-88(s0)
    50205622:	fef43023          	sd	a5,-32(s0)
    50205626:	fe043783          	ld	a5,-32(s0)
    5020562a:	fcf43c23          	sd	a5,-40(s0)
    5020562e:	fc042a23          	sw	zero,-44(s0)
    50205632:	a099                	j	50205678 <do_exec+0x23a>
    50205634:	fd843783          	ld	a5,-40(s0)
    50205638:	17c1                	addi	a5,a5,-16
    5020563a:	fcf43c23          	sd	a5,-40(s0)
    5020563e:	fd442783          	lw	a5,-44(s0)
    50205642:	078e                	slli	a5,a5,0x3
    50205644:	f7843703          	ld	a4,-136(s0)
    50205648:	97ba                	add	a5,a5,a4
    5020564a:	639c                	ld	a5,0(a5)
    5020564c:	85be                	mv	a1,a5
    5020564e:	fd843503          	ld	a0,-40(s0)
    50205652:	310010ef          	jal	ra,50206962 <strcpy>
    50205656:	fca43c23          	sd	a0,-40(s0)
    5020565a:	fd843703          	ld	a4,-40(s0)
    5020565e:	fe043783          	ld	a5,-32(s0)
    50205662:	e398                	sd	a4,0(a5)
    50205664:	fe043783          	ld	a5,-32(s0)
    50205668:	07a1                	addi	a5,a5,8
    5020566a:	fef43023          	sd	a5,-32(s0)
    5020566e:	fd442783          	lw	a5,-44(s0)
    50205672:	2785                	addiw	a5,a5,1
    50205674:	fcf42a23          	sw	a5,-44(s0)
    50205678:	fd442703          	lw	a4,-44(s0)
    5020567c:	f8442783          	lw	a5,-124(s0)
    50205680:	2701                	sext.w	a4,a4
    50205682:	2781                	sext.w	a5,a5
    50205684:	faf748e3          	blt	a4,a5,50205634 <do_exec+0x1f6>
    50205688:	fb043783          	ld	a5,-80(s0)
    5020568c:	0007871b          	sext.w	a4,a5
    50205690:	fd843783          	ld	a5,-40(s0)
    50205694:	2781                	sext.w	a5,a5
    50205696:	40f707bb          	subw	a5,a4,a5
    5020569a:	2781                	sext.w	a5,a5
    5020569c:	2781                	sext.w	a5,a5
    5020569e:	07f7f793          	andi	a5,a5,127
    502056a2:	faf42223          	sw	a5,-92(s0)
    502056a6:	fa442783          	lw	a5,-92(s0)
    502056aa:	2781                	sext.w	a5,a5
    502056ac:	cf89                	beqz	a5,502056c6 <do_exec+0x288>
    502056ae:	fd843783          	ld	a5,-40(s0)
    502056b2:	08000693          	li	a3,128
    502056b6:	fa442703          	lw	a4,-92(s0)
    502056ba:	40e6873b          	subw	a4,a3,a4
    502056be:	2701                	sext.w	a4,a4
    502056c0:	8f99                	sub	a5,a5,a4
    502056c2:	fcf43c23          	sd	a5,-40(s0)
    502056c6:	fd843783          	ld	a5,-40(s0)
    502056ca:	faf43823          	sd	a5,-80(s0)
    502056ce:	fb843783          	ld	a5,-72(s0)
    502056d2:	ee078793          	addi	a5,a5,-288
    502056d6:	f8f43c23          	sd	a5,-104(s0)
    502056da:	fc042823          	sw	zero,-48(s0)
    502056de:	a831                	j	502056fa <do_exec+0x2bc>
    502056e0:	f9843703          	ld	a4,-104(s0)
    502056e4:	fd042783          	lw	a5,-48(s0)
    502056e8:	078e                	slli	a5,a5,0x3
    502056ea:	97ba                	add	a5,a5,a4
    502056ec:	0007b023          	sd	zero,0(a5)
    502056f0:	fd042783          	lw	a5,-48(s0)
    502056f4:	2785                	addiw	a5,a5,1
    502056f6:	fcf42823          	sw	a5,-48(s0)
    502056fa:	fd042783          	lw	a5,-48(s0)
    502056fe:	0007871b          	sext.w	a4,a5
    50205702:	47fd                	li	a5,31
    50205704:	fce7dee3          	bge	a5,a4,502056e0 <do_exec+0x2a2>
    50205708:	f9843783          	ld	a5,-104(s0)
    5020570c:	fc043703          	ld	a4,-64(s0)
    50205710:	e798                	sd	a4,8(a5)
    50205712:	f9843783          	ld	a5,-104(s0)
    50205716:	fb043703          	ld	a4,-80(s0)
    5020571a:	eb98                	sd	a4,16(a5)
    5020571c:	fe842703          	lw	a4,-24(s0)
    50205720:	11800793          	li	a5,280
    50205724:	02f70733          	mul	a4,a4,a5
    50205728:	00007797          	auipc	a5,0x7
    5020572c:	39878793          	addi	a5,a5,920 # 5020cac0 <pcb>
    50205730:	97ba                	add	a5,a5,a4
    50205732:	873e                	mv	a4,a5
    50205734:	f9843783          	ld	a5,-104(s0)
    50205738:	f398                	sd	a4,32(a5)
    5020573a:	f8442703          	lw	a4,-124(s0)
    5020573e:	f9843783          	ld	a5,-104(s0)
    50205742:	ebb8                	sd	a4,80(a5)
    50205744:	f9843783          	ld	a5,-104(s0)
    50205748:	fa843703          	ld	a4,-88(s0)
    5020574c:	efb8                	sd	a4,88(a5)
    5020574e:	f9843783          	ld	a5,-104(s0)
    50205752:	fc043703          	ld	a4,-64(s0)
    50205756:	10e7b423          	sd	a4,264(a5)
    5020575a:	f9843783          	ld	a5,-104(s0)
    5020575e:	4709                	li	a4,2
    50205760:	10e7b023          	sd	a4,256(a5)
    50205764:	f9843783          	ld	a5,-104(s0)
    50205768:	f9078793          	addi	a5,a5,-112
    5020576c:	f8f43823          	sd	a5,-112(s0)
    50205770:	ffffc717          	auipc	a4,0xffffc
    50205774:	95870713          	addi	a4,a4,-1704 # 502010c8 <ret_from_exception>
    50205778:	f9043783          	ld	a5,-112(s0)
    5020577c:	e398                	sd	a4,0(a5)
    5020577e:	f9043783          	ld	a5,-112(s0)
    50205782:	fb043703          	ld	a4,-80(s0)
    50205786:	e798                	sd	a4,8(a5)
    50205788:	fb843783          	ld	a5,-72(s0)
    5020578c:	e7078713          	addi	a4,a5,-400
    50205790:	00007697          	auipc	a3,0x7
    50205794:	33068693          	addi	a3,a3,816 # 5020cac0 <pcb>
    50205798:	fe842603          	lw	a2,-24(s0)
    5020579c:	11800793          	li	a5,280
    502057a0:	02f607b3          	mul	a5,a2,a5
    502057a4:	97b6                	add	a5,a5,a3
    502057a6:	e398                	sd	a4,0(a5)
    502057a8:	00007717          	auipc	a4,0x7
    502057ac:	31870713          	addi	a4,a4,792 # 5020cac0 <pcb>
    502057b0:	fe842683          	lw	a3,-24(s0)
    502057b4:	11800793          	li	a5,280
    502057b8:	02f687b3          	mul	a5,a3,a5
    502057bc:	97ba                	add	a5,a5,a4
    502057be:	fb043703          	ld	a4,-80(s0)
    502057c2:	e798                	sd	a4,8(a5)
    502057c4:	00007717          	auipc	a4,0x7
    502057c8:	2fc70713          	addi	a4,a4,764 # 5020cac0 <pcb>
    502057cc:	fe842683          	lw	a3,-24(s0)
    502057d0:	11800793          	li	a5,280
    502057d4:	02f687b3          	mul	a5,a3,a5
    502057d8:	97ba                	add	a5,a5,a4
    502057da:	fc043703          	ld	a4,-64(s0)
    502057de:	e3b8                	sd	a4,64(a5)
    502057e0:	00007717          	auipc	a4,0x7
    502057e4:	2e070713          	addi	a4,a4,736 # 5020cac0 <pcb>
    502057e8:	fe842683          	lw	a3,-24(s0)
    502057ec:	11800793          	li	a5,280
    502057f0:	02f687b3          	mul	a5,a3,a5
    502057f4:	97ba                	add	a5,a5,a4
    502057f6:	0d87a783          	lw	a5,216(a5)
    502057fa:	fcf42623          	sw	a5,-52(s0)
    502057fe:	fe842703          	lw	a4,-24(s0)
    50205802:	11800793          	li	a5,280
    50205806:	02f707b3          	mul	a5,a4,a5
    5020580a:	04078713          	addi	a4,a5,64
    5020580e:	00007797          	auipc	a5,0x7
    50205812:	2b278793          	addi	a5,a5,690 # 5020cac0 <pcb>
    50205816:	97ba                	add	a5,a5,a4
    50205818:	07b1                	addi	a5,a5,12
    5020581a:	853e                	mv	a0,a5
    5020581c:	8c7fd0ef          	jal	ra,502030e2 <spin_lock_release>
    50205820:	fcc42783          	lw	a5,-52(s0)
    50205824:	a899                	j	5020587a <do_exec+0x43c>
    50205826:	fe842703          	lw	a4,-24(s0)
    5020582a:	11800793          	li	a5,280
    5020582e:	02f707b3          	mul	a5,a4,a5
    50205832:	04078713          	addi	a4,a5,64
    50205836:	00007797          	auipc	a5,0x7
    5020583a:	28a78793          	addi	a5,a5,650 # 5020cac0 <pcb>
    5020583e:	97ba                	add	a5,a5,a4
    50205840:	07b1                	addi	a5,a5,12
    50205842:	853e                	mv	a0,a5
    50205844:	89ffd0ef          	jal	ra,502030e2 <spin_lock_release>
    50205848:	fe842783          	lw	a5,-24(s0)
    5020584c:	2785                	addiw	a5,a5,1
    5020584e:	fef42423          	sw	a5,-24(s0)
    50205852:	fe842783          	lw	a5,-24(s0)
    50205856:	0007871b          	sext.w	a4,a5
    5020585a:	47fd                	li	a5,31
    5020585c:	c6e7d4e3          	bge	a5,a4,502054c4 <do_exec+0x86>
    50205860:	fec42783          	lw	a5,-20(s0)
    50205864:	2785                	addiw	a5,a5,1
    50205866:	fef42623          	sw	a5,-20(s0)
    5020586a:	fec42783          	lw	a5,-20(s0)
    5020586e:	0007871b          	sext.w	a4,a5
    50205872:	47fd                	li	a5,31
    50205874:	c0e7d4e3          	bge	a5,a4,5020547c <do_exec+0x3e>
    50205878:	4781                	li	a5,0
    5020587a:	853e                	mv	a0,a5
    5020587c:	60aa                	ld	ra,136(sp)
    5020587e:	640a                	ld	s0,128(sp)
    50205880:	6149                	addi	sp,sp,144
    50205882:	8082                	ret

0000000050205884 <do_getpid>:
    50205884:	1141                	addi	sp,sp,-16
    50205886:	e406                	sd	ra,8(sp)
    50205888:	e022                	sd	s0,0(sp)
    5020588a:	0800                	addi	s0,sp,16
    5020588c:	959fb0ef          	jal	ra,502011e4 <get_current_cpu_id>
    50205890:	87aa                	mv	a5,a0
    50205892:	00004717          	auipc	a4,0x4
    50205896:	c5e70713          	addi	a4,a4,-930 # 502094f0 <current_running>
    5020589a:	078e                	slli	a5,a5,0x3
    5020589c:	97ba                	add	a5,a5,a4
    5020589e:	639c                	ld	a5,0(a5)
    502058a0:	0d87a783          	lw	a5,216(a5)
    502058a4:	853e                	mv	a0,a5
    502058a6:	60a2                	ld	ra,8(sp)
    502058a8:	6402                	ld	s0,0(sp)
    502058aa:	0141                	addi	sp,sp,16
    502058ac:	8082                	ret

00000000502058ae <do_process_show>:
    502058ae:	1101                	addi	sp,sp,-32
    502058b0:	ec06                	sd	ra,24(sp)
    502058b2:	e822                	sd	s0,16(sp)
    502058b4:	1000                	addi	s0,sp,32
    502058b6:	fe042623          	sw	zero,-20(s0)
    502058ba:	00001517          	auipc	a0,0x1
    502058be:	7b650513          	addi	a0,a0,1974 # 50207070 <__FUNCTION__.1397+0x38>
    502058c2:	56b000ef          	jal	ra,5020662c <printk>
    502058c6:	00001517          	auipc	a0,0x1
    502058ca:	7c250513          	addi	a0,a0,1986 # 50207088 <__FUNCTION__.1397+0x50>
    502058ce:	55f000ef          	jal	ra,5020662c <printk>
    502058d2:	fe042423          	sw	zero,-24(s0)
    502058d6:	a4b9                	j	50205b24 <do_process_show+0x276>
    502058d8:	00007717          	auipc	a4,0x7
    502058dc:	1e870713          	addi	a4,a4,488 # 5020cac0 <pcb>
    502058e0:	fe842683          	lw	a3,-24(s0)
    502058e4:	11800793          	li	a5,280
    502058e8:	02f687b3          	mul	a5,a3,a5
    502058ec:	97ba                	add	a5,a5,a4
    502058ee:	0f07a783          	lw	a5,240(a5)
    502058f2:	c795                	beqz	a5,5020591e <do_process_show+0x70>
    502058f4:	00007717          	auipc	a4,0x7
    502058f8:	1cc70713          	addi	a4,a4,460 # 5020cac0 <pcb>
    502058fc:	fe842683          	lw	a3,-24(s0)
    50205900:	11800793          	li	a5,280
    50205904:	02f687b3          	mul	a5,a3,a5
    50205908:	97ba                	add	a5,a5,a4
    5020590a:	0f07a783          	lw	a5,240(a5)
    5020590e:	873e                	mv	a4,a5
    50205910:	4785                	li	a5,1
    50205912:	00f71463          	bne	a4,a5,5020591a <do_process_show+0x6c>
    50205916:	4785                	li	a5,1
    50205918:	a021                	j	50205920 <do_process_show+0x72>
    5020591a:	4789                	li	a5,2
    5020591c:	a011                	j	50205920 <do_process_show+0x72>
    5020591e:	478d                	li	a5,3
    50205920:	fef42223          	sw	a5,-28(s0)
    50205924:	00007717          	auipc	a4,0x7
    50205928:	19c70713          	addi	a4,a4,412 # 5020cac0 <pcb>
    5020592c:	fe842683          	lw	a3,-24(s0)
    50205930:	11800793          	li	a5,280
    50205934:	02f687b3          	mul	a5,a3,a5
    50205938:	97ba                	add	a5,a5,a4
    5020593a:	1007a783          	lw	a5,256(a5)
    5020593e:	873e                	mv	a4,a5
    50205940:	4785                	li	a5,1
    50205942:	08f71663          	bne	a4,a5,502059ce <do_process_show+0x120>
    50205946:	00007717          	auipc	a4,0x7
    5020594a:	17a70713          	addi	a4,a4,378 # 5020cac0 <pcb>
    5020594e:	fe842683          	lw	a3,-24(s0)
    50205952:	11800793          	li	a5,280
    50205956:	02f687b3          	mul	a5,a3,a5
    5020595a:	97ba                	add	a5,a5,a4
    5020595c:	0d87a783          	lw	a5,216(a5)
    50205960:	c7bd                	beqz	a5,502059ce <do_process_show+0x120>
    50205962:	00007717          	auipc	a4,0x7
    50205966:	15e70713          	addi	a4,a4,350 # 5020cac0 <pcb>
    5020596a:	fe842683          	lw	a3,-24(s0)
    5020596e:	11800793          	li	a5,280
    50205972:	02f687b3          	mul	a5,a3,a5
    50205976:	97ba                	add	a5,a5,a4
    50205978:	0d87a603          	lw	a2,216(a5)
    5020597c:	00007717          	auipc	a4,0x7
    50205980:	14470713          	addi	a4,a4,324 # 5020cac0 <pcb>
    50205984:	fe842683          	lw	a3,-24(s0)
    50205988:	11800793          	li	a5,280
    5020598c:	02f687b3          	mul	a5,a3,a5
    50205990:	97ba                	add	a5,a5,a4
    50205992:	7fe8                	ld	a0,248(a5)
    50205994:	00007717          	auipc	a4,0x7
    50205998:	12c70713          	addi	a4,a4,300 # 5020cac0 <pcb>
    5020599c:	fe842683          	lw	a3,-24(s0)
    502059a0:	11800793          	li	a5,280
    502059a4:	02f687b3          	mul	a5,a3,a5
    502059a8:	97ba                	add	a5,a5,a4
    502059aa:	77fc                	ld	a5,232(a5)
    502059ac:	fe442683          	lw	a3,-28(s0)
    502059b0:	fec42583          	lw	a1,-20(s0)
    502059b4:	872a                	mv	a4,a0
    502059b6:	00001517          	auipc	a0,0x1
    502059ba:	6fa50513          	addi	a0,a0,1786 # 502070b0 <__FUNCTION__.1397+0x78>
    502059be:	46f000ef          	jal	ra,5020662c <printk>
    502059c2:	fec42783          	lw	a5,-20(s0)
    502059c6:	2785                	addiw	a5,a5,1
    502059c8:	fef42623          	sw	a5,-20(s0)
    502059cc:	a2b9                	j	50205b1a <do_process_show+0x26c>
    502059ce:	00007717          	auipc	a4,0x7
    502059d2:	0f270713          	addi	a4,a4,242 # 5020cac0 <pcb>
    502059d6:	fe842683          	lw	a3,-24(s0)
    502059da:	11800793          	li	a5,280
    502059de:	02f687b3          	mul	a5,a3,a5
    502059e2:	97ba                	add	a5,a5,a4
    502059e4:	1007a783          	lw	a5,256(a5)
    502059e8:	873e                	mv	a4,a5
    502059ea:	4789                	li	a5,2
    502059ec:	08f71663          	bne	a4,a5,50205a78 <do_process_show+0x1ca>
    502059f0:	00007717          	auipc	a4,0x7
    502059f4:	0d070713          	addi	a4,a4,208 # 5020cac0 <pcb>
    502059f8:	fe842683          	lw	a3,-24(s0)
    502059fc:	11800793          	li	a5,280
    50205a00:	02f687b3          	mul	a5,a3,a5
    50205a04:	97ba                	add	a5,a5,a4
    50205a06:	0d87a783          	lw	a5,216(a5)
    50205a0a:	c7bd                	beqz	a5,50205a78 <do_process_show+0x1ca>
    50205a0c:	00007717          	auipc	a4,0x7
    50205a10:	0b470713          	addi	a4,a4,180 # 5020cac0 <pcb>
    50205a14:	fe842683          	lw	a3,-24(s0)
    50205a18:	11800793          	li	a5,280
    50205a1c:	02f687b3          	mul	a5,a3,a5
    50205a20:	97ba                	add	a5,a5,a4
    50205a22:	0d87a603          	lw	a2,216(a5)
    50205a26:	00007717          	auipc	a4,0x7
    50205a2a:	09a70713          	addi	a4,a4,154 # 5020cac0 <pcb>
    50205a2e:	fe842683          	lw	a3,-24(s0)
    50205a32:	11800793          	li	a5,280
    50205a36:	02f687b3          	mul	a5,a3,a5
    50205a3a:	97ba                	add	a5,a5,a4
    50205a3c:	7fe8                	ld	a0,248(a5)
    50205a3e:	00007717          	auipc	a4,0x7
    50205a42:	08270713          	addi	a4,a4,130 # 5020cac0 <pcb>
    50205a46:	fe842683          	lw	a3,-24(s0)
    50205a4a:	11800793          	li	a5,280
    50205a4e:	02f687b3          	mul	a5,a3,a5
    50205a52:	97ba                	add	a5,a5,a4
    50205a54:	77fc                	ld	a5,232(a5)
    50205a56:	fe442683          	lw	a3,-28(s0)
    50205a5a:	fec42583          	lw	a1,-20(s0)
    50205a5e:	872a                	mv	a4,a0
    50205a60:	00001517          	auipc	a0,0x1
    50205a64:	68050513          	addi	a0,a0,1664 # 502070e0 <__FUNCTION__.1397+0xa8>
    50205a68:	3c5000ef          	jal	ra,5020662c <printk>
    50205a6c:	fec42783          	lw	a5,-20(s0)
    50205a70:	2785                	addiw	a5,a5,1
    50205a72:	fef42623          	sw	a5,-20(s0)
    50205a76:	a055                	j	50205b1a <do_process_show+0x26c>
    50205a78:	00007717          	auipc	a4,0x7
    50205a7c:	04870713          	addi	a4,a4,72 # 5020cac0 <pcb>
    50205a80:	fe842683          	lw	a3,-24(s0)
    50205a84:	11800793          	li	a5,280
    50205a88:	02f687b3          	mul	a5,a3,a5
    50205a8c:	97ba                	add	a5,a5,a4
    50205a8e:	1007a783          	lw	a5,256(a5)
    50205a92:	e7c1                	bnez	a5,50205b1a <do_process_show+0x26c>
    50205a94:	00007717          	auipc	a4,0x7
    50205a98:	02c70713          	addi	a4,a4,44 # 5020cac0 <pcb>
    50205a9c:	fe842683          	lw	a3,-24(s0)
    50205aa0:	11800793          	li	a5,280
    50205aa4:	02f687b3          	mul	a5,a3,a5
    50205aa8:	97ba                	add	a5,a5,a4
    50205aaa:	0d87a783          	lw	a5,216(a5)
    50205aae:	c7b5                	beqz	a5,50205b1a <do_process_show+0x26c>
    50205ab0:	00007717          	auipc	a4,0x7
    50205ab4:	01070713          	addi	a4,a4,16 # 5020cac0 <pcb>
    50205ab8:	fe842683          	lw	a3,-24(s0)
    50205abc:	11800793          	li	a5,280
    50205ac0:	02f687b3          	mul	a5,a3,a5
    50205ac4:	97ba                	add	a5,a5,a4
    50205ac6:	0d87a603          	lw	a2,216(a5)
    50205aca:	00007717          	auipc	a4,0x7
    50205ace:	ff670713          	addi	a4,a4,-10 # 5020cac0 <pcb>
    50205ad2:	fe842683          	lw	a3,-24(s0)
    50205ad6:	11800793          	li	a5,280
    50205ada:	02f687b3          	mul	a5,a3,a5
    50205ade:	97ba                	add	a5,a5,a4
    50205ae0:	7fe8                	ld	a0,248(a5)
    50205ae2:	00007717          	auipc	a4,0x7
    50205ae6:	fde70713          	addi	a4,a4,-34 # 5020cac0 <pcb>
    50205aea:	fe842683          	lw	a3,-24(s0)
    50205aee:	11800793          	li	a5,280
    50205af2:	02f687b3          	mul	a5,a3,a5
    50205af6:	97ba                	add	a5,a5,a4
    50205af8:	77fc                	ld	a5,232(a5)
    50205afa:	fe442683          	lw	a3,-28(s0)
    50205afe:	fec42583          	lw	a1,-20(s0)
    50205b02:	872a                	mv	a4,a0
    50205b04:	00001517          	auipc	a0,0x1
    50205b08:	60c50513          	addi	a0,a0,1548 # 50207110 <__FUNCTION__.1397+0xd8>
    50205b0c:	321000ef          	jal	ra,5020662c <printk>
    50205b10:	fec42783          	lw	a5,-20(s0)
    50205b14:	2785                	addiw	a5,a5,1
    50205b16:	fef42623          	sw	a5,-20(s0)
    50205b1a:	fe842783          	lw	a5,-24(s0)
    50205b1e:	2785                	addiw	a5,a5,1
    50205b20:	fef42423          	sw	a5,-24(s0)
    50205b24:	00002797          	auipc	a5,0x2
    50205b28:	97478793          	addi	a5,a5,-1676 # 50207498 <process_id>
    50205b2c:	4398                	lw	a4,0(a5)
    50205b2e:	fe842783          	lw	a5,-24(s0)
    50205b32:	2781                	sext.w	a5,a5
    50205b34:	dae7c2e3          	blt	a5,a4,502058d8 <do_process_show+0x2a>
    50205b38:	0001                	nop
    50205b3a:	0001                	nop
    50205b3c:	60e2                	ld	ra,24(sp)
    50205b3e:	6442                	ld	s0,16(sp)
    50205b40:	6105                	addi	sp,sp,32
    50205b42:	8082                	ret

0000000050205b44 <do_taskset>:
    50205b44:	7139                	addi	sp,sp,-64
    50205b46:	fc06                	sd	ra,56(sp)
    50205b48:	f822                	sd	s0,48(sp)
    50205b4a:	0080                	addi	s0,sp,64
    50205b4c:	fca43c23          	sd	a0,-40(s0)
    50205b50:	87ae                	mv	a5,a1
    50205b52:	fcc43423          	sd	a2,-56(s0)
    50205b56:	8736                	mv	a4,a3
    50205b58:	fcf42a23          	sw	a5,-44(s0)
    50205b5c:	87ba                	mv	a5,a4
    50205b5e:	fcf42823          	sw	a5,-48(s0)
    50205b62:	fd442783          	lw	a5,-44(s0)
    50205b66:	fc843603          	ld	a2,-56(s0)
    50205b6a:	85be                	mv	a1,a5
    50205b6c:	fd843503          	ld	a0,-40(s0)
    50205b70:	8cfff0ef          	jal	ra,5020543e <do_exec>
    50205b74:	87aa                	mv	a5,a0
    50205b76:	fef42423          	sw	a5,-24(s0)
    50205b7a:	fe842783          	lw	a5,-24(s0)
    50205b7e:	2781                	sext.w	a5,a5
    50205b80:	c3ed                	beqz	a5,50205c62 <do_taskset+0x11e>
    50205b82:	fe042623          	sw	zero,-20(s0)
    50205b86:	a0f9                	j	50205c54 <do_taskset+0x110>
    50205b88:	fec42703          	lw	a4,-20(s0)
    50205b8c:	11800793          	li	a5,280
    50205b90:	02f707b3          	mul	a5,a4,a5
    50205b94:	04078713          	addi	a4,a5,64
    50205b98:	00007797          	auipc	a5,0x7
    50205b9c:	f2878793          	addi	a5,a5,-216 # 5020cac0 <pcb>
    50205ba0:	97ba                	add	a5,a5,a4
    50205ba2:	07b1                	addi	a5,a5,12
    50205ba4:	853e                	mv	a0,a5
    50205ba6:	d02fd0ef          	jal	ra,502030a8 <spin_lock_acquire>
    50205baa:	00007717          	auipc	a4,0x7
    50205bae:	f1670713          	addi	a4,a4,-234 # 5020cac0 <pcb>
    50205bb2:	fec42683          	lw	a3,-20(s0)
    50205bb6:	11800793          	li	a5,280
    50205bba:	02f687b3          	mul	a5,a3,a5
    50205bbe:	97ba                	add	a5,a5,a4
    50205bc0:	0d87a703          	lw	a4,216(a5)
    50205bc4:	fe842783          	lw	a5,-24(s0)
    50205bc8:	2781                	sext.w	a5,a5
    50205bca:	04e79f63          	bne	a5,a4,50205c28 <do_taskset+0xe4>
    50205bce:	00007717          	auipc	a4,0x7
    50205bd2:	ef270713          	addi	a4,a4,-270 # 5020cac0 <pcb>
    50205bd6:	fec42683          	lw	a3,-20(s0)
    50205bda:	11800793          	li	a5,280
    50205bde:	02f687b3          	mul	a5,a3,a5
    50205be2:	97ba                	add	a5,a5,a4
    50205be4:	fd042703          	lw	a4,-48(s0)
    50205be8:	0ee7a823          	sw	a4,240(a5)
    50205bec:	fd042703          	lw	a4,-48(s0)
    50205bf0:	fe842783          	lw	a5,-24(s0)
    50205bf4:	863a                	mv	a2,a4
    50205bf6:	85be                	mv	a1,a5
    50205bf8:	00001517          	auipc	a0,0x1
    50205bfc:	54850513          	addi	a0,a0,1352 # 50207140 <__FUNCTION__.1397+0x108>
    50205c00:	22d000ef          	jal	ra,5020662c <printk>
    50205c04:	fec42703          	lw	a4,-20(s0)
    50205c08:	11800793          	li	a5,280
    50205c0c:	02f707b3          	mul	a5,a4,a5
    50205c10:	04078713          	addi	a4,a5,64
    50205c14:	00007797          	auipc	a5,0x7
    50205c18:	eac78793          	addi	a5,a5,-340 # 5020cac0 <pcb>
    50205c1c:	97ba                	add	a5,a5,a4
    50205c1e:	07b1                	addi	a5,a5,12
    50205c20:	853e                	mv	a0,a5
    50205c22:	cc0fd0ef          	jal	ra,502030e2 <spin_lock_release>
    50205c26:	a835                	j	50205c62 <do_taskset+0x11e>
    50205c28:	fec42703          	lw	a4,-20(s0)
    50205c2c:	11800793          	li	a5,280
    50205c30:	02f707b3          	mul	a5,a4,a5
    50205c34:	04078713          	addi	a4,a5,64
    50205c38:	00007797          	auipc	a5,0x7
    50205c3c:	e8878793          	addi	a5,a5,-376 # 5020cac0 <pcb>
    50205c40:	97ba                	add	a5,a5,a4
    50205c42:	07b1                	addi	a5,a5,12
    50205c44:	853e                	mv	a0,a5
    50205c46:	c9cfd0ef          	jal	ra,502030e2 <spin_lock_release>
    50205c4a:	fec42783          	lw	a5,-20(s0)
    50205c4e:	2785                	addiw	a5,a5,1
    50205c50:	fef42623          	sw	a5,-20(s0)
    50205c54:	fec42783          	lw	a5,-20(s0)
    50205c58:	0007871b          	sext.w	a4,a5
    50205c5c:	47fd                	li	a5,31
    50205c5e:	f2e7d5e3          	bge	a5,a4,50205b88 <do_taskset+0x44>
    50205c62:	fe842783          	lw	a5,-24(s0)
    50205c66:	853e                	mv	a0,a5
    50205c68:	70e2                	ld	ra,56(sp)
    50205c6a:	7442                	ld	s0,48(sp)
    50205c6c:	6121                	addi	sp,sp,64
    50205c6e:	8082                	ret

0000000050205c70 <do_taskset_bypid>:
    50205c70:	7179                	addi	sp,sp,-48
    50205c72:	f406                	sd	ra,40(sp)
    50205c74:	f022                	sd	s0,32(sp)
    50205c76:	1800                	addi	s0,sp,48
    50205c78:	87aa                	mv	a5,a0
    50205c7a:	872e                	mv	a4,a1
    50205c7c:	fcf42e23          	sw	a5,-36(s0)
    50205c80:	87ba                	mv	a5,a4
    50205c82:	fcf42c23          	sw	a5,-40(s0)
    50205c86:	fe042623          	sw	zero,-20(s0)
    50205c8a:	fe042623          	sw	zero,-20(s0)
    50205c8e:	a0f9                	j	50205d5c <do_taskset_bypid+0xec>
    50205c90:	fec42703          	lw	a4,-20(s0)
    50205c94:	11800793          	li	a5,280
    50205c98:	02f707b3          	mul	a5,a4,a5
    50205c9c:	04078713          	addi	a4,a5,64
    50205ca0:	00007797          	auipc	a5,0x7
    50205ca4:	e2078793          	addi	a5,a5,-480 # 5020cac0 <pcb>
    50205ca8:	97ba                	add	a5,a5,a4
    50205caa:	07b1                	addi	a5,a5,12
    50205cac:	853e                	mv	a0,a5
    50205cae:	bfafd0ef          	jal	ra,502030a8 <spin_lock_acquire>
    50205cb2:	00007717          	auipc	a4,0x7
    50205cb6:	e0e70713          	addi	a4,a4,-498 # 5020cac0 <pcb>
    50205cba:	fec42683          	lw	a3,-20(s0)
    50205cbe:	11800793          	li	a5,280
    50205cc2:	02f687b3          	mul	a5,a3,a5
    50205cc6:	97ba                	add	a5,a5,a4
    50205cc8:	0d87a703          	lw	a4,216(a5)
    50205ccc:	fdc42783          	lw	a5,-36(s0)
    50205cd0:	2781                	sext.w	a5,a5
    50205cd2:	04e79f63          	bne	a5,a4,50205d30 <do_taskset_bypid+0xc0>
    50205cd6:	00007717          	auipc	a4,0x7
    50205cda:	dea70713          	addi	a4,a4,-534 # 5020cac0 <pcb>
    50205cde:	fec42683          	lw	a3,-20(s0)
    50205ce2:	11800793          	li	a5,280
    50205ce6:	02f687b3          	mul	a5,a3,a5
    50205cea:	97ba                	add	a5,a5,a4
    50205cec:	fd842703          	lw	a4,-40(s0)
    50205cf0:	0ee7a823          	sw	a4,240(a5)
    50205cf4:	fd842703          	lw	a4,-40(s0)
    50205cf8:	fdc42783          	lw	a5,-36(s0)
    50205cfc:	863a                	mv	a2,a4
    50205cfe:	85be                	mv	a1,a5
    50205d00:	00001517          	auipc	a0,0x1
    50205d04:	44050513          	addi	a0,a0,1088 # 50207140 <__FUNCTION__.1397+0x108>
    50205d08:	125000ef          	jal	ra,5020662c <printk>
    50205d0c:	fec42703          	lw	a4,-20(s0)
    50205d10:	11800793          	li	a5,280
    50205d14:	02f707b3          	mul	a5,a4,a5
    50205d18:	04078713          	addi	a4,a5,64
    50205d1c:	00007797          	auipc	a5,0x7
    50205d20:	da478793          	addi	a5,a5,-604 # 5020cac0 <pcb>
    50205d24:	97ba                	add	a5,a5,a4
    50205d26:	07b1                	addi	a5,a5,12
    50205d28:	853e                	mv	a0,a5
    50205d2a:	bb8fd0ef          	jal	ra,502030e2 <spin_lock_release>
    50205d2e:	a835                	j	50205d6a <do_taskset_bypid+0xfa>
    50205d30:	fec42703          	lw	a4,-20(s0)
    50205d34:	11800793          	li	a5,280
    50205d38:	02f707b3          	mul	a5,a4,a5
    50205d3c:	04078713          	addi	a4,a5,64
    50205d40:	00007797          	auipc	a5,0x7
    50205d44:	d8078793          	addi	a5,a5,-640 # 5020cac0 <pcb>
    50205d48:	97ba                	add	a5,a5,a4
    50205d4a:	07b1                	addi	a5,a5,12
    50205d4c:	853e                	mv	a0,a5
    50205d4e:	b94fd0ef          	jal	ra,502030e2 <spin_lock_release>
    50205d52:	fec42783          	lw	a5,-20(s0)
    50205d56:	2785                	addiw	a5,a5,1
    50205d58:	fef42623          	sw	a5,-20(s0)
    50205d5c:	fec42783          	lw	a5,-20(s0)
    50205d60:	0007871b          	sext.w	a4,a5
    50205d64:	47fd                	li	a5,31
    50205d66:	f2e7d5e3          	bge	a5,a4,50205c90 <do_taskset_bypid+0x20>
    50205d6a:	fec42783          	lw	a5,-20(s0)
    50205d6e:	0007871b          	sext.w	a4,a5
    50205d72:	02000793          	li	a5,32
    50205d76:	00f71b63          	bne	a4,a5,50205d8c <do_taskset_bypid+0x11c>
    50205d7a:	fdc42783          	lw	a5,-36(s0)
    50205d7e:	85be                	mv	a1,a5
    50205d80:	00001517          	auipc	a0,0x1
    50205d84:	3e850513          	addi	a0,a0,1000 # 50207168 <__FUNCTION__.1397+0x130>
    50205d88:	15d000ef          	jal	ra,502066e4 <printl>
    50205d8c:	0001                	nop
    50205d8e:	70a2                	ld	ra,40(sp)
    50205d90:	7402                	ld	s0,32(sp)
    50205d92:	6145                	addi	sp,sp,48
    50205d94:	8082                	ret

0000000050205d96 <handle_syscall>:
    50205d96:	7179                	addi	sp,sp,-48
    50205d98:	f406                	sd	ra,40(sp)
    50205d9a:	f022                	sd	s0,32(sp)
    50205d9c:	1800                	addi	s0,sp,48
    50205d9e:	fea43423          	sd	a0,-24(s0)
    50205da2:	feb43023          	sd	a1,-32(s0)
    50205da6:	fcc43c23          	sd	a2,-40(s0)
    50205daa:	fe843783          	ld	a5,-24(s0)
    50205dae:	1087b783          	ld	a5,264(a5)
    50205db2:	00478713          	addi	a4,a5,4
    50205db6:	fe843783          	ld	a5,-24(s0)
    50205dba:	10e7b423          	sd	a4,264(a5)
    50205dbe:	fe843783          	ld	a5,-24(s0)
    50205dc2:	67dc                	ld	a5,136(a5)
    50205dc4:	00009717          	auipc	a4,0x9
    50205dc8:	ffc70713          	addi	a4,a4,-4 # 5020edc0 <syscall>
    50205dcc:	078e                	slli	a5,a5,0x3
    50205dce:	97ba                	add	a5,a5,a4
    50205dd0:	0007b803          	ld	a6,0(a5)
    50205dd4:	fe843783          	ld	a5,-24(s0)
    50205dd8:	6ba8                	ld	a0,80(a5)
    50205dda:	fe843783          	ld	a5,-24(s0)
    50205dde:	6fac                	ld	a1,88(a5)
    50205de0:	fe843783          	ld	a5,-24(s0)
    50205de4:	73b0                	ld	a2,96(a5)
    50205de6:	fe843783          	ld	a5,-24(s0)
    50205dea:	77b4                	ld	a3,104(a5)
    50205dec:	fe843783          	ld	a5,-24(s0)
    50205df0:	7bbc                	ld	a5,112(a5)
    50205df2:	873e                	mv	a4,a5
    50205df4:	9802                	jalr	a6
    50205df6:	87aa                	mv	a5,a0
    50205df8:	873e                	mv	a4,a5
    50205dfa:	fe843783          	ld	a5,-24(s0)
    50205dfe:	ebb8                	sd	a4,80(a5)
    50205e00:	0001                	nop
    50205e02:	70a2                	ld	ra,40(sp)
    50205e04:	7402                	ld	s0,32(sp)
    50205e06:	6145                	addi	sp,sp,48
    50205e08:	8082                	ret

0000000050205e0a <call_jmptab>:
    50205e0a:	715d                	addi	sp,sp,-80
    50205e0c:	e486                	sd	ra,72(sp)
    50205e0e:	e0a2                	sd	s0,64(sp)
    50205e10:	0880                	addi	s0,sp,80
    50205e12:	fca43c23          	sd	a0,-40(s0)
    50205e16:	fcb43823          	sd	a1,-48(s0)
    50205e1a:	fcc43423          	sd	a2,-56(s0)
    50205e1e:	fcd43023          	sd	a3,-64(s0)
    50205e22:	fae43c23          	sd	a4,-72(s0)
    50205e26:	faf43823          	sd	a5,-80(s0)
    50205e2a:	fd843703          	ld	a4,-40(s0)
    50205e2e:	0a4007b7          	lui	a5,0xa400
    50205e32:	1781                	addi	a5,a5,-32
    50205e34:	97ba                	add	a5,a5,a4
    50205e36:	078e                	slli	a5,a5,0x3
    50205e38:	639c                	ld	a5,0(a5)
    50205e3a:	fef43423          	sd	a5,-24(s0)
    50205e3e:	fe843783          	ld	a5,-24(s0)
    50205e42:	fef43023          	sd	a5,-32(s0)
    50205e46:	fe043783          	ld	a5,-32(s0)
    50205e4a:	fb043703          	ld	a4,-80(s0)
    50205e4e:	fb843683          	ld	a3,-72(s0)
    50205e52:	fc043603          	ld	a2,-64(s0)
    50205e56:	fc843583          	ld	a1,-56(s0)
    50205e5a:	fd043503          	ld	a0,-48(s0)
    50205e5e:	9782                	jalr	a5
    50205e60:	87aa                	mv	a5,a0
    50205e62:	853e                	mv	a0,a5
    50205e64:	60a6                	ld	ra,72(sp)
    50205e66:	6406                	ld	s0,64(sp)
    50205e68:	6161                	addi	sp,sp,80
    50205e6a:	8082                	ret

0000000050205e6c <bios_putstr>:
    50205e6c:	1101                	addi	sp,sp,-32
    50205e6e:	ec06                	sd	ra,24(sp)
    50205e70:	e822                	sd	s0,16(sp)
    50205e72:	1000                	addi	s0,sp,32
    50205e74:	fea43423          	sd	a0,-24(s0)
    50205e78:	fe843583          	ld	a1,-24(s0)
    50205e7c:	4781                	li	a5,0
    50205e7e:	4701                	li	a4,0
    50205e80:	4681                	li	a3,0
    50205e82:	4601                	li	a2,0
    50205e84:	4501                	li	a0,0
    50205e86:	f85ff0ef          	jal	ra,50205e0a <call_jmptab>
    50205e8a:	0001                	nop
    50205e8c:	60e2                	ld	ra,24(sp)
    50205e8e:	6442                	ld	s0,16(sp)
    50205e90:	6105                	addi	sp,sp,32
    50205e92:	8082                	ret

0000000050205e94 <bios_logging>:
    50205e94:	1101                	addi	sp,sp,-32
    50205e96:	ec06                	sd	ra,24(sp)
    50205e98:	e822                	sd	s0,16(sp)
    50205e9a:	1000                	addi	s0,sp,32
    50205e9c:	fea43423          	sd	a0,-24(s0)
    50205ea0:	fe843583          	ld	a1,-24(s0)
    50205ea4:	4781                	li	a5,0
    50205ea6:	4701                	li	a4,0
    50205ea8:	4681                	li	a3,0
    50205eaa:	4601                	li	a2,0
    50205eac:	4515                	li	a0,5
    50205eae:	f5dff0ef          	jal	ra,50205e0a <call_jmptab>
    50205eb2:	0001                	nop
    50205eb4:	60e2                	ld	ra,24(sp)
    50205eb6:	6442                	ld	s0,16(sp)
    50205eb8:	6105                	addi	sp,sp,32
    50205eba:	8082                	ret

0000000050205ebc <mini_strlen>:
    50205ebc:	7179                	addi	sp,sp,-48
    50205ebe:	f422                	sd	s0,40(sp)
    50205ec0:	1800                	addi	s0,sp,48
    50205ec2:	fca43c23          	sd	a0,-40(s0)
    50205ec6:	fe042623          	sw	zero,-20(s0)
    50205eca:	a031                	j	50205ed6 <mini_strlen+0x1a>
    50205ecc:	fec42783          	lw	a5,-20(s0)
    50205ed0:	2785                	addiw	a5,a5,1
    50205ed2:	fef42623          	sw	a5,-20(s0)
    50205ed6:	fec46783          	lwu	a5,-20(s0)
    50205eda:	fd843703          	ld	a4,-40(s0)
    50205ede:	97ba                	add	a5,a5,a4
    50205ee0:	0007c783          	lbu	a5,0(a5) # a400000 <TEXT_START-0x45e01000>
    50205ee4:	f7e5                	bnez	a5,50205ecc <mini_strlen+0x10>
    50205ee6:	fec42783          	lw	a5,-20(s0)
    50205eea:	853e                	mv	a0,a5
    50205eec:	7422                	ld	s0,40(sp)
    50205eee:	6145                	addi	sp,sp,48
    50205ef0:	8082                	ret

0000000050205ef2 <mini_itoa>:
    50205ef2:	715d                	addi	sp,sp,-80
    50205ef4:	e4a2                	sd	s0,72(sp)
    50205ef6:	0880                	addi	s0,sp,80
    50205ef8:	fca43423          	sd	a0,-56(s0)
    50205efc:	fae43823          	sd	a4,-80(s0)
    50205f00:	873e                	mv	a4,a5
    50205f02:	87ae                	mv	a5,a1
    50205f04:	fcf42223          	sw	a5,-60(s0)
    50205f08:	87b2                	mv	a5,a2
    50205f0a:	fcf42023          	sw	a5,-64(s0)
    50205f0e:	87b6                	mv	a5,a3
    50205f10:	faf42e23          	sw	a5,-68(s0)
    50205f14:	87ba                	mv	a5,a4
    50205f16:	faf42c23          	sw	a5,-72(s0)
    50205f1a:	fb043783          	ld	a5,-80(s0)
    50205f1e:	fef43423          	sd	a5,-24(s0)
    50205f22:	fe042223          	sw	zero,-28(s0)
    50205f26:	fc442783          	lw	a5,-60(s0)
    50205f2a:	0007871b          	sext.w	a4,a5
    50205f2e:	47c1                	li	a5,16
    50205f30:	00e7f463          	bgeu	a5,a4,50205f38 <mini_itoa+0x46>
    50205f34:	4781                	li	a5,0
    50205f36:	aae9                	j	50206110 <mini_itoa+0x21e>
    50205f38:	fc843783          	ld	a5,-56(s0)
    50205f3c:	0007df63          	bgez	a5,50205f5a <mini_itoa+0x68>
    50205f40:	fbc42783          	lw	a5,-68(s0)
    50205f44:	2781                	sext.w	a5,a5
    50205f46:	eb91                	bnez	a5,50205f5a <mini_itoa+0x68>
    50205f48:	4785                	li	a5,1
    50205f4a:	fef42223          	sw	a5,-28(s0)
    50205f4e:	fc843783          	ld	a5,-56(s0)
    50205f52:	40f007b3          	neg	a5,a5
    50205f56:	fcf43423          	sd	a5,-56(s0)
    50205f5a:	fc042e23          	sw	zero,-36(s0)
    50205f5e:	fbc42783          	lw	a5,-68(s0)
    50205f62:	2781                	sext.w	a5,a5
    50205f64:	cb91                	beqz	a5,50205f78 <mini_itoa+0x86>
    50205f66:	fc843703          	ld	a4,-56(s0)
    50205f6a:	fc446783          	lwu	a5,-60(s0)
    50205f6e:	02f777b3          	remu	a5,a4,a5
    50205f72:	fcf42e23          	sw	a5,-36(s0)
    50205f76:	a809                	j	50205f88 <mini_itoa+0x96>
    50205f78:	fc446783          	lwu	a5,-60(s0)
    50205f7c:	fc843703          	ld	a4,-56(s0)
    50205f80:	02f767b3          	rem	a5,a4,a5
    50205f84:	fcf42e23          	sw	a5,-36(s0)
    50205f88:	fdc42783          	lw	a5,-36(s0)
    50205f8c:	0007871b          	sext.w	a4,a5
    50205f90:	47a5                	li	a5,9
    50205f92:	00e7cb63          	blt	a5,a4,50205fa8 <mini_itoa+0xb6>
    50205f96:	fdc42783          	lw	a5,-36(s0)
    50205f9a:	0ff7f793          	andi	a5,a5,255
    50205f9e:	0307879b          	addiw	a5,a5,48
    50205fa2:	0ff7f713          	andi	a4,a5,255
    50205fa6:	a025                	j	50205fce <mini_itoa+0xdc>
    50205fa8:	fc042783          	lw	a5,-64(s0)
    50205fac:	2781                	sext.w	a5,a5
    50205fae:	c781                	beqz	a5,50205fb6 <mini_itoa+0xc4>
    50205fb0:	04100793          	li	a5,65
    50205fb4:	a019                	j	50205fba <mini_itoa+0xc8>
    50205fb6:	06100793          	li	a5,97
    50205fba:	fdc42703          	lw	a4,-36(s0)
    50205fbe:	0ff77713          	andi	a4,a4,255
    50205fc2:	9fb9                	addw	a5,a5,a4
    50205fc4:	0ff7f793          	andi	a5,a5,255
    50205fc8:	37d9                	addiw	a5,a5,-10
    50205fca:	0ff7f713          	andi	a4,a5,255
    50205fce:	fe843783          	ld	a5,-24(s0)
    50205fd2:	00178693          	addi	a3,a5,1
    50205fd6:	fed43423          	sd	a3,-24(s0)
    50205fda:	00e78023          	sb	a4,0(a5)
    50205fde:	fbc42783          	lw	a5,-68(s0)
    50205fe2:	2781                	sext.w	a5,a5
    50205fe4:	cb91                	beqz	a5,50205ff8 <mini_itoa+0x106>
    50205fe6:	fc843703          	ld	a4,-56(s0)
    50205fea:	fc446783          	lwu	a5,-60(s0)
    50205fee:	02f757b3          	divu	a5,a4,a5
    50205ff2:	fcf43423          	sd	a5,-56(s0)
    50205ff6:	a809                	j	50206008 <mini_itoa+0x116>
    50205ff8:	fc446783          	lwu	a5,-60(s0)
    50205ffc:	fc843703          	ld	a4,-56(s0)
    50206000:	02f747b3          	div	a5,a4,a5
    50206004:	fcf43423          	sd	a5,-56(s0)
    50206008:	fc843783          	ld	a5,-56(s0)
    5020600c:	f7b9                	bnez	a5,50205f5a <mini_itoa+0x68>
    5020600e:	fe843703          	ld	a4,-24(s0)
    50206012:	fb043783          	ld	a5,-80(s0)
    50206016:	40f707b3          	sub	a5,a4,a5
    5020601a:	fef42023          	sw	a5,-32(s0)
    5020601e:	a005                	j	5020603e <mini_itoa+0x14c>
    50206020:	fe843783          	ld	a5,-24(s0)
    50206024:	00178713          	addi	a4,a5,1
    50206028:	fee43423          	sd	a4,-24(s0)
    5020602c:	03000713          	li	a4,48
    50206030:	00e78023          	sb	a4,0(a5)
    50206034:	fe042783          	lw	a5,-32(s0)
    50206038:	2785                	addiw	a5,a5,1
    5020603a:	fef42023          	sw	a5,-32(s0)
    5020603e:	fe042703          	lw	a4,-32(s0)
    50206042:	fb842783          	lw	a5,-72(s0)
    50206046:	2701                	sext.w	a4,a4
    50206048:	2781                	sext.w	a5,a5
    5020604a:	fcf76be3          	bltu	a4,a5,50206020 <mini_itoa+0x12e>
    5020604e:	fe442783          	lw	a5,-28(s0)
    50206052:	2781                	sext.w	a5,a5
    50206054:	cb99                	beqz	a5,5020606a <mini_itoa+0x178>
    50206056:	fe843783          	ld	a5,-24(s0)
    5020605a:	00178713          	addi	a4,a5,1
    5020605e:	fee43423          	sd	a4,-24(s0)
    50206062:	02d00713          	li	a4,45
    50206066:	00e78023          	sb	a4,0(a5)
    5020606a:	fe843783          	ld	a5,-24(s0)
    5020606e:	00078023          	sb	zero,0(a5)
    50206072:	fe843703          	ld	a4,-24(s0)
    50206076:	fb043783          	ld	a5,-80(s0)
    5020607a:	40f707b3          	sub	a5,a4,a5
    5020607e:	fcf42c23          	sw	a5,-40(s0)
    50206082:	fe042023          	sw	zero,-32(s0)
    50206086:	a885                	j	502060f6 <mini_itoa+0x204>
    50206088:	fe046783          	lwu	a5,-32(s0)
    5020608c:	fb043703          	ld	a4,-80(s0)
    50206090:	97ba                	add	a5,a5,a4
    50206092:	0007c783          	lbu	a5,0(a5)
    50206096:	fcf40ba3          	sb	a5,-41(s0)
    5020609a:	fd842703          	lw	a4,-40(s0)
    5020609e:	fe042783          	lw	a5,-32(s0)
    502060a2:	40f707bb          	subw	a5,a4,a5
    502060a6:	2781                	sext.w	a5,a5
    502060a8:	37fd                	addiw	a5,a5,-1
    502060aa:	2781                	sext.w	a5,a5
    502060ac:	1782                	slli	a5,a5,0x20
    502060ae:	9381                	srli	a5,a5,0x20
    502060b0:	fb043703          	ld	a4,-80(s0)
    502060b4:	973e                	add	a4,a4,a5
    502060b6:	fe046783          	lwu	a5,-32(s0)
    502060ba:	fb043683          	ld	a3,-80(s0)
    502060be:	97b6                	add	a5,a5,a3
    502060c0:	00074703          	lbu	a4,0(a4)
    502060c4:	00e78023          	sb	a4,0(a5)
    502060c8:	fd842703          	lw	a4,-40(s0)
    502060cc:	fe042783          	lw	a5,-32(s0)
    502060d0:	40f707bb          	subw	a5,a4,a5
    502060d4:	2781                	sext.w	a5,a5
    502060d6:	37fd                	addiw	a5,a5,-1
    502060d8:	2781                	sext.w	a5,a5
    502060da:	1782                	slli	a5,a5,0x20
    502060dc:	9381                	srli	a5,a5,0x20
    502060de:	fb043703          	ld	a4,-80(s0)
    502060e2:	97ba                	add	a5,a5,a4
    502060e4:	fd744703          	lbu	a4,-41(s0)
    502060e8:	00e78023          	sb	a4,0(a5)
    502060ec:	fe042783          	lw	a5,-32(s0)
    502060f0:	2785                	addiw	a5,a5,1
    502060f2:	fef42023          	sw	a5,-32(s0)
    502060f6:	fd842783          	lw	a5,-40(s0)
    502060fa:	0017d79b          	srliw	a5,a5,0x1
    502060fe:	0007871b          	sext.w	a4,a5
    50206102:	fe042783          	lw	a5,-32(s0)
    50206106:	2781                	sext.w	a5,a5
    50206108:	f8e7e0e3          	bltu	a5,a4,50206088 <mini_itoa+0x196>
    5020610c:	fd842783          	lw	a5,-40(s0)
    50206110:	853e                	mv	a0,a5
    50206112:	6426                	ld	s0,72(sp)
    50206114:	6161                	addi	sp,sp,80
    50206116:	8082                	ret

0000000050206118 <_putc>:
    50206118:	1101                	addi	sp,sp,-32
    5020611a:	ec22                	sd	s0,24(sp)
    5020611c:	1000                	addi	s0,sp,32
    5020611e:	87aa                	mv	a5,a0
    50206120:	feb43023          	sd	a1,-32(s0)
    50206124:	fef42623          	sw	a5,-20(s0)
    50206128:	fe043783          	ld	a5,-32(s0)
    5020612c:	6798                	ld	a4,8(a5)
    5020612e:	fe043783          	ld	a5,-32(s0)
    50206132:	639c                	ld	a5,0(a5)
    50206134:	40f707b3          	sub	a5,a4,a5
    50206138:	2781                	sext.w	a5,a5
    5020613a:	2785                	addiw	a5,a5,1
    5020613c:	0007871b          	sext.w	a4,a5
    50206140:	fe043783          	ld	a5,-32(s0)
    50206144:	4b9c                	lw	a5,16(a5)
    50206146:	00f76463          	bltu	a4,a5,5020614e <_putc+0x36>
    5020614a:	4781                	li	a5,0
    5020614c:	a02d                	j	50206176 <_putc+0x5e>
    5020614e:	fe043783          	ld	a5,-32(s0)
    50206152:	679c                	ld	a5,8(a5)
    50206154:	00178693          	addi	a3,a5,1
    50206158:	fe043703          	ld	a4,-32(s0)
    5020615c:	e714                	sd	a3,8(a4)
    5020615e:	fec42703          	lw	a4,-20(s0)
    50206162:	0ff77713          	andi	a4,a4,255
    50206166:	00e78023          	sb	a4,0(a5)
    5020616a:	fe043783          	ld	a5,-32(s0)
    5020616e:	679c                	ld	a5,8(a5)
    50206170:	00078023          	sb	zero,0(a5)
    50206174:	4785                	li	a5,1
    50206176:	853e                	mv	a0,a5
    50206178:	6462                	ld	s0,24(sp)
    5020617a:	6105                	addi	sp,sp,32
    5020617c:	8082                	ret

000000005020617e <_puts>:
    5020617e:	7139                	addi	sp,sp,-64
    50206180:	fc22                	sd	s0,56(sp)
    50206182:	0080                	addi	s0,sp,64
    50206184:	fca43c23          	sd	a0,-40(s0)
    50206188:	87ae                	mv	a5,a1
    5020618a:	fcc43423          	sd	a2,-56(s0)
    5020618e:	fcf42a23          	sw	a5,-44(s0)
    50206192:	fc843783          	ld	a5,-56(s0)
    50206196:	4b9c                	lw	a5,16(a5)
    50206198:	02079713          	slli	a4,a5,0x20
    5020619c:	9301                	srli	a4,a4,0x20
    5020619e:	fc843783          	ld	a5,-56(s0)
    502061a2:	6794                	ld	a3,8(a5)
    502061a4:	fc843783          	ld	a5,-56(s0)
    502061a8:	639c                	ld	a5,0(a5)
    502061aa:	40f687b3          	sub	a5,a3,a5
    502061ae:	8f1d                	sub	a4,a4,a5
    502061b0:	fd446783          	lwu	a5,-44(s0)
    502061b4:	02e7c463          	blt	a5,a4,502061dc <_puts+0x5e>
    502061b8:	fc843783          	ld	a5,-56(s0)
    502061bc:	4b98                	lw	a4,16(a5)
    502061be:	fc843783          	ld	a5,-56(s0)
    502061c2:	6794                	ld	a3,8(a5)
    502061c4:	fc843783          	ld	a5,-56(s0)
    502061c8:	639c                	ld	a5,0(a5)
    502061ca:	40f687b3          	sub	a5,a3,a5
    502061ce:	2781                	sext.w	a5,a5
    502061d0:	40f707bb          	subw	a5,a4,a5
    502061d4:	2781                	sext.w	a5,a5
    502061d6:	37fd                	addiw	a5,a5,-1
    502061d8:	fcf42a23          	sw	a5,-44(s0)
    502061dc:	fe042623          	sw	zero,-20(s0)
    502061e0:	a03d                	j	5020620e <_puts+0x90>
    502061e2:	fec46783          	lwu	a5,-20(s0)
    502061e6:	fd843703          	ld	a4,-40(s0)
    502061ea:	973e                	add	a4,a4,a5
    502061ec:	fc843783          	ld	a5,-56(s0)
    502061f0:	679c                	ld	a5,8(a5)
    502061f2:	00178613          	addi	a2,a5,1
    502061f6:	fc843683          	ld	a3,-56(s0)
    502061fa:	e690                	sd	a2,8(a3)
    502061fc:	00074703          	lbu	a4,0(a4)
    50206200:	00e78023          	sb	a4,0(a5)
    50206204:	fec42783          	lw	a5,-20(s0)
    50206208:	2785                	addiw	a5,a5,1
    5020620a:	fef42623          	sw	a5,-20(s0)
    5020620e:	fec42703          	lw	a4,-20(s0)
    50206212:	fd442783          	lw	a5,-44(s0)
    50206216:	2701                	sext.w	a4,a4
    50206218:	2781                	sext.w	a5,a5
    5020621a:	fcf764e3          	bltu	a4,a5,502061e2 <_puts+0x64>
    5020621e:	fc843783          	ld	a5,-56(s0)
    50206222:	679c                	ld	a5,8(a5)
    50206224:	00078023          	sb	zero,0(a5)
    50206228:	fd442783          	lw	a5,-44(s0)
    5020622c:	853e                	mv	a0,a5
    5020622e:	7462                	ld	s0,56(sp)
    50206230:	6121                	addi	sp,sp,64
    50206232:	8082                	ret

0000000050206234 <mini_vsnprintf>:
    50206234:	7119                	addi	sp,sp,-128
    50206236:	fc86                	sd	ra,120(sp)
    50206238:	f8a2                	sd	s0,112(sp)
    5020623a:	0100                	addi	s0,sp,128
    5020623c:	f8a43c23          	sd	a0,-104(s0)
    50206240:	87ae                	mv	a5,a1
    50206242:	f8c43423          	sd	a2,-120(s0)
    50206246:	f8d43023          	sd	a3,-128(s0)
    5020624a:	f8f42a23          	sw	a5,-108(s0)
    5020624e:	f9843783          	ld	a5,-104(s0)
    50206252:	fcf43023          	sd	a5,-64(s0)
    50206256:	f9843783          	ld	a5,-104(s0)
    5020625a:	fcf43423          	sd	a5,-56(s0)
    5020625e:	f9442783          	lw	a5,-108(s0)
    50206262:	fcf42823          	sw	a5,-48(s0)
    50206266:	a4f9                	j	50206534 <mini_vsnprintf+0x300>
    50206268:	fc843703          	ld	a4,-56(s0)
    5020626c:	fc043783          	ld	a5,-64(s0)
    50206270:	40f707b3          	sub	a5,a4,a5
    50206274:	2781                	sext.w	a5,a5
    50206276:	2785                	addiw	a5,a5,1
    50206278:	0007871b          	sext.w	a4,a5
    5020627c:	fd042783          	lw	a5,-48(s0)
    50206280:	2cf77b63          	bgeu	a4,a5,50206556 <mini_vsnprintf+0x322>
    50206284:	fef44783          	lbu	a5,-17(s0)
    50206288:	0ff7f713          	andi	a4,a5,255
    5020628c:	02500793          	li	a5,37
    50206290:	00f70c63          	beq	a4,a5,502062a8 <mini_vsnprintf+0x74>
    50206294:	fef44783          	lbu	a5,-17(s0)
    50206298:	2781                	sext.w	a5,a5
    5020629a:	fc040713          	addi	a4,s0,-64
    5020629e:	85ba                	mv	a1,a4
    502062a0:	853e                	mv	a0,a5
    502062a2:	e77ff0ef          	jal	ra,50206118 <_putc>
    502062a6:	a479                	j	50206534 <mini_vsnprintf+0x300>
    502062a8:	fe040723          	sb	zero,-18(s0)
    502062ac:	fe042423          	sw	zero,-24(s0)
    502062b0:	f8843783          	ld	a5,-120(s0)
    502062b4:	00178713          	addi	a4,a5,1
    502062b8:	f8e43423          	sd	a4,-120(s0)
    502062bc:	0007c783          	lbu	a5,0(a5)
    502062c0:	fef407a3          	sb	a5,-17(s0)
    502062c4:	fef44783          	lbu	a5,-17(s0)
    502062c8:	0ff7f713          	andi	a4,a5,255
    502062cc:	03000793          	li	a5,48
    502062d0:	06f71b63          	bne	a4,a5,50206346 <mini_vsnprintf+0x112>
    502062d4:	a891                	j	50206328 <mini_vsnprintf+0xf4>
    502062d6:	fef44783          	lbu	a5,-17(s0)
    502062da:	0ff7f793          	andi	a5,a5,255
    502062de:	26078e63          	beqz	a5,5020655a <mini_vsnprintf+0x326>
    502062e2:	fef44783          	lbu	a5,-17(s0)
    502062e6:	0ff7f713          	andi	a4,a5,255
    502062ea:	02f00793          	li	a5,47
    502062ee:	04e7fc63          	bgeu	a5,a4,50206346 <mini_vsnprintf+0x112>
    502062f2:	fef44783          	lbu	a5,-17(s0)
    502062f6:	0ff7f713          	andi	a4,a5,255
    502062fa:	03900793          	li	a5,57
    502062fe:	04e7e463          	bltu	a5,a4,50206346 <mini_vsnprintf+0x112>
    50206302:	fee44703          	lbu	a4,-18(s0)
    50206306:	87ba                	mv	a5,a4
    50206308:	0027979b          	slliw	a5,a5,0x2
    5020630c:	9fb9                	addw	a5,a5,a4
    5020630e:	0017979b          	slliw	a5,a5,0x1
    50206312:	0ff7f793          	andi	a5,a5,255
    50206316:	fef44703          	lbu	a4,-17(s0)
    5020631a:	9fb9                	addw	a5,a5,a4
    5020631c:	0ff7f793          	andi	a5,a5,255
    50206320:	fd07879b          	addiw	a5,a5,-48
    50206324:	fef40723          	sb	a5,-18(s0)
    50206328:	f8843783          	ld	a5,-120(s0)
    5020632c:	00178713          	addi	a4,a5,1
    50206330:	f8e43423          	sd	a4,-120(s0)
    50206334:	0007c783          	lbu	a5,0(a5)
    50206338:	fef407a3          	sb	a5,-17(s0)
    5020633c:	fef44783          	lbu	a5,-17(s0)
    50206340:	0ff7f793          	andi	a5,a5,255
    50206344:	fbc9                	bnez	a5,502062d6 <mini_vsnprintf+0xa2>
    50206346:	fef44783          	lbu	a5,-17(s0)
    5020634a:	0ff7f713          	andi	a4,a5,255
    5020634e:	06c00793          	li	a5,108
    50206352:	00f71f63          	bne	a4,a5,50206370 <mini_vsnprintf+0x13c>
    50206356:	4785                	li	a5,1
    50206358:	fef42423          	sw	a5,-24(s0)
    5020635c:	f8843783          	ld	a5,-120(s0)
    50206360:	00178713          	addi	a4,a5,1
    50206364:	f8e43423          	sd	a4,-120(s0)
    50206368:	0007c783          	lbu	a5,0(a5)
    5020636c:	fef407a3          	sb	a5,-17(s0)
    50206370:	fef44783          	lbu	a5,-17(s0)
    50206374:	2781                	sext.w	a5,a5
    50206376:	1e078463          	beqz	a5,5020655e <mini_vsnprintf+0x32a>
    5020637a:	873e                	mv	a4,a5
    5020637c:	1a074263          	bltz	a4,50206520 <mini_vsnprintf+0x2ec>
    50206380:	86be                	mv	a3,a5
    50206382:	07800713          	li	a4,120
    50206386:	18d74d63          	blt	a4,a3,50206520 <mini_vsnprintf+0x2ec>
    5020638a:	86be                	mv	a3,a5
    5020638c:	05800713          	li	a4,88
    50206390:	18e6c863          	blt	a3,a4,50206520 <mini_vsnprintf+0x2ec>
    50206394:	fa87869b          	addiw	a3,a5,-88
    50206398:	0006871b          	sext.w	a4,a3
    5020639c:	02000793          	li	a5,32
    502063a0:	18e7e063          	bltu	a5,a4,50206520 <mini_vsnprintf+0x2ec>
    502063a4:	02069793          	slli	a5,a3,0x20
    502063a8:	9381                	srli	a5,a5,0x20
    502063aa:	00279713          	slli	a4,a5,0x2
    502063ae:	00001797          	auipc	a5,0x1
    502063b2:	dda78793          	addi	a5,a5,-550 # 50207188 <__FUNCTION__.1397+0x150>
    502063b6:	97ba                	add	a5,a5,a4
    502063b8:	439c                	lw	a5,0(a5)
    502063ba:	0007871b          	sext.w	a4,a5
    502063be:	00001797          	auipc	a5,0x1
    502063c2:	dca78793          	addi	a5,a5,-566 # 50207188 <__FUNCTION__.1397+0x150>
    502063c6:	97ba                	add	a5,a5,a4
    502063c8:	8782                	jr	a5
    502063ca:	4785                	li	a5,1
    502063cc:	fef42423          	sw	a5,-24(s0)
    502063d0:	a295                	j	50206534 <mini_vsnprintf+0x300>
    502063d2:	fe842783          	lw	a5,-24(s0)
    502063d6:	2781                	sext.w	a5,a5
    502063d8:	ef81                	bnez	a5,502063f0 <mini_vsnprintf+0x1bc>
    502063da:	f8043783          	ld	a5,-128(s0)
    502063de:	00878713          	addi	a4,a5,8
    502063e2:	f8e43023          	sd	a4,-128(s0)
    502063e6:	439c                	lw	a5,0(a5)
    502063e8:	02079513          	slli	a0,a5,0x20
    502063ec:	9101                	srli	a0,a0,0x20
    502063ee:	a809                	j	50206400 <mini_vsnprintf+0x1cc>
    502063f0:	f8043783          	ld	a5,-128(s0)
    502063f4:	00878713          	addi	a4,a5,8
    502063f8:	f8e43023          	sd	a4,-128(s0)
    502063fc:	639c                	ld	a5,0(a5)
    502063fe:	853e                	mv	a0,a5
    50206400:	fef44783          	lbu	a5,-17(s0)
    50206404:	0007871b          	sext.w	a4,a5
    50206408:	07500793          	li	a5,117
    5020640c:	40f707b3          	sub	a5,a4,a5
    50206410:	0017b793          	seqz	a5,a5
    50206414:	0ff7f793          	andi	a5,a5,255
    50206418:	0007869b          	sext.w	a3,a5
    5020641c:	fee44783          	lbu	a5,-18(s0)
    50206420:	2781                	sext.w	a5,a5
    50206422:	fa840713          	addi	a4,s0,-88
    50206426:	4601                	li	a2,0
    50206428:	45a9                	li	a1,10
    5020642a:	ac9ff0ef          	jal	ra,50205ef2 <mini_itoa>
    5020642e:	87aa                	mv	a5,a0
    50206430:	fcf42e23          	sw	a5,-36(s0)
    50206434:	fc040693          	addi	a3,s0,-64
    50206438:	fdc42703          	lw	a4,-36(s0)
    5020643c:	fa840793          	addi	a5,s0,-88
    50206440:	8636                	mv	a2,a3
    50206442:	85ba                	mv	a1,a4
    50206444:	853e                	mv	a0,a5
    50206446:	d39ff0ef          	jal	ra,5020617e <_puts>
    5020644a:	fe042423          	sw	zero,-24(s0)
    5020644e:	a0dd                	j	50206534 <mini_vsnprintf+0x300>
    50206450:	fe842783          	lw	a5,-24(s0)
    50206454:	2781                	sext.w	a5,a5
    50206456:	ef81                	bnez	a5,5020646e <mini_vsnprintf+0x23a>
    50206458:	f8043783          	ld	a5,-128(s0)
    5020645c:	00878713          	addi	a4,a5,8
    50206460:	f8e43023          	sd	a4,-128(s0)
    50206464:	439c                	lw	a5,0(a5)
    50206466:	02079513          	slli	a0,a5,0x20
    5020646a:	9101                	srli	a0,a0,0x20
    5020646c:	a809                	j	5020647e <mini_vsnprintf+0x24a>
    5020646e:	f8043783          	ld	a5,-128(s0)
    50206472:	00878713          	addi	a4,a5,8
    50206476:	f8e43023          	sd	a4,-128(s0)
    5020647a:	639c                	ld	a5,0(a5)
    5020647c:	853e                	mv	a0,a5
    5020647e:	fef44783          	lbu	a5,-17(s0)
    50206482:	0007871b          	sext.w	a4,a5
    50206486:	05800793          	li	a5,88
    5020648a:	40f707b3          	sub	a5,a4,a5
    5020648e:	0017b793          	seqz	a5,a5
    50206492:	0ff7f793          	andi	a5,a5,255
    50206496:	0007861b          	sext.w	a2,a5
    5020649a:	fee44783          	lbu	a5,-18(s0)
    5020649e:	2781                	sext.w	a5,a5
    502064a0:	fa840713          	addi	a4,s0,-88
    502064a4:	4685                	li	a3,1
    502064a6:	45c1                	li	a1,16
    502064a8:	a4bff0ef          	jal	ra,50205ef2 <mini_itoa>
    502064ac:	87aa                	mv	a5,a0
    502064ae:	fcf42e23          	sw	a5,-36(s0)
    502064b2:	fc040693          	addi	a3,s0,-64
    502064b6:	fdc42703          	lw	a4,-36(s0)
    502064ba:	fa840793          	addi	a5,s0,-88
    502064be:	8636                	mv	a2,a3
    502064c0:	85ba                	mv	a1,a4
    502064c2:	853e                	mv	a0,a5
    502064c4:	cbbff0ef          	jal	ra,5020617e <_puts>
    502064c8:	fe042423          	sw	zero,-24(s0)
    502064cc:	a0a5                	j	50206534 <mini_vsnprintf+0x300>
    502064ce:	f8043783          	ld	a5,-128(s0)
    502064d2:	00878713          	addi	a4,a5,8
    502064d6:	f8e43023          	sd	a4,-128(s0)
    502064da:	439c                	lw	a5,0(a5)
    502064dc:	0ff7f793          	andi	a5,a5,255
    502064e0:	2781                	sext.w	a5,a5
    502064e2:	fc040713          	addi	a4,s0,-64
    502064e6:	85ba                	mv	a1,a4
    502064e8:	853e                	mv	a0,a5
    502064ea:	c2fff0ef          	jal	ra,50206118 <_putc>
    502064ee:	a099                	j	50206534 <mini_vsnprintf+0x300>
    502064f0:	f8043783          	ld	a5,-128(s0)
    502064f4:	00878713          	addi	a4,a5,8
    502064f8:	f8e43023          	sd	a4,-128(s0)
    502064fc:	639c                	ld	a5,0(a5)
    502064fe:	fef43023          	sd	a5,-32(s0)
    50206502:	fe043503          	ld	a0,-32(s0)
    50206506:	9b7ff0ef          	jal	ra,50205ebc <mini_strlen>
    5020650a:	87aa                	mv	a5,a0
    5020650c:	2781                	sext.w	a5,a5
    5020650e:	fc040713          	addi	a4,s0,-64
    50206512:	863a                	mv	a2,a4
    50206514:	85be                	mv	a1,a5
    50206516:	fe043503          	ld	a0,-32(s0)
    5020651a:	c65ff0ef          	jal	ra,5020617e <_puts>
    5020651e:	a819                	j	50206534 <mini_vsnprintf+0x300>
    50206520:	fef44783          	lbu	a5,-17(s0)
    50206524:	2781                	sext.w	a5,a5
    50206526:	fc040713          	addi	a4,s0,-64
    5020652a:	85ba                	mv	a1,a4
    5020652c:	853e                	mv	a0,a5
    5020652e:	bebff0ef          	jal	ra,50206118 <_putc>
    50206532:	0001                	nop
    50206534:	f8843783          	ld	a5,-120(s0)
    50206538:	00178713          	addi	a4,a5,1
    5020653c:	f8e43423          	sd	a4,-120(s0)
    50206540:	0007c783          	lbu	a5,0(a5)
    50206544:	fef407a3          	sb	a5,-17(s0)
    50206548:	fef44783          	lbu	a5,-17(s0)
    5020654c:	0ff7f793          	andi	a5,a5,255
    50206550:	d0079ce3          	bnez	a5,50206268 <mini_vsnprintf+0x34>
    50206554:	a031                	j	50206560 <mini_vsnprintf+0x32c>
    50206556:	0001                	nop
    50206558:	a021                	j	50206560 <mini_vsnprintf+0x32c>
    5020655a:	0001                	nop
    5020655c:	a011                	j	50206560 <mini_vsnprintf+0x32c>
    5020655e:	0001                	nop
    50206560:	fc843703          	ld	a4,-56(s0)
    50206564:	fc043783          	ld	a5,-64(s0)
    50206568:	40f707b3          	sub	a5,a4,a5
    5020656c:	2781                	sext.w	a5,a5
    5020656e:	853e                	mv	a0,a5
    50206570:	70e6                	ld	ra,120(sp)
    50206572:	7446                	ld	s0,112(sp)
    50206574:	6109                	addi	sp,sp,128
    50206576:	8082                	ret

0000000050206578 <_vprint>:
    50206578:	7129                	addi	sp,sp,-320
    5020657a:	fe06                	sd	ra,312(sp)
    5020657c:	fa22                	sd	s0,304(sp)
    5020657e:	0280                	addi	s0,sp,320
    50206580:	eca43c23          	sd	a0,-296(s0)
    50206584:	ecb43823          	sd	a1,-304(s0)
    50206588:	ecc43423          	sd	a2,-312(s0)
    5020658c:	ed043783          	ld	a5,-304(s0)
    50206590:	fef43023          	sd	a5,-32(s0)
    50206594:	fe043703          	ld	a4,-32(s0)
    50206598:	ee040793          	addi	a5,s0,-288
    5020659c:	86ba                	mv	a3,a4
    5020659e:	ed843603          	ld	a2,-296(s0)
    502065a2:	10000593          	li	a1,256
    502065a6:	853e                	mv	a0,a5
    502065a8:	c8dff0ef          	jal	ra,50206234 <mini_vsnprintf>
    502065ac:	87aa                	mv	a5,a0
    502065ae:	fef42623          	sw	a5,-20(s0)
    502065b2:	fec42783          	lw	a5,-20(s0)
    502065b6:	ff040713          	addi	a4,s0,-16
    502065ba:	97ba                	add	a5,a5,a4
    502065bc:	ee078823          	sb	zero,-272(a5)
    502065c0:	ee040793          	addi	a5,s0,-288
    502065c4:	ec843703          	ld	a4,-312(s0)
    502065c8:	853e                	mv	a0,a5
    502065ca:	9702                	jalr	a4
    502065cc:	fec42783          	lw	a5,-20(s0)
    502065d0:	853e                	mv	a0,a5
    502065d2:	70f2                	ld	ra,312(sp)
    502065d4:	7452                	ld	s0,304(sp)
    502065d6:	6131                	addi	sp,sp,320
    502065d8:	8082                	ret

00000000502065da <_output_wrapper>:
    502065da:	1101                	addi	sp,sp,-32
    502065dc:	ec06                	sd	ra,24(sp)
    502065de:	e822                	sd	s0,16(sp)
    502065e0:	1000                	addi	s0,sp,32
    502065e2:	fea43423          	sd	a0,-24(s0)
    502065e6:	fe843503          	ld	a0,-24(s0)
    502065ea:	ef7fb0ef          	jal	ra,502024e0 <screen_write>
    502065ee:	f51fb0ef          	jal	ra,5020253e <screen_reflush>
    502065f2:	0001                	nop
    502065f4:	60e2                	ld	ra,24(sp)
    502065f6:	6442                	ld	s0,16(sp)
    502065f8:	6105                	addi	sp,sp,32
    502065fa:	8082                	ret

00000000502065fc <vprintk>:
    502065fc:	1101                	addi	sp,sp,-32
    502065fe:	ec06                	sd	ra,24(sp)
    50206600:	e822                	sd	s0,16(sp)
    50206602:	1000                	addi	s0,sp,32
    50206604:	fea43423          	sd	a0,-24(s0)
    50206608:	feb43023          	sd	a1,-32(s0)
    5020660c:	00000617          	auipc	a2,0x0
    50206610:	fce60613          	addi	a2,a2,-50 # 502065da <_output_wrapper>
    50206614:	fe043583          	ld	a1,-32(s0)
    50206618:	fe843503          	ld	a0,-24(s0)
    5020661c:	f5dff0ef          	jal	ra,50206578 <_vprint>
    50206620:	87aa                	mv	a5,a0
    50206622:	853e                	mv	a0,a5
    50206624:	60e2                	ld	ra,24(sp)
    50206626:	6442                	ld	s0,16(sp)
    50206628:	6105                	addi	sp,sp,32
    5020662a:	8082                	ret

000000005020662c <printk>:
    5020662c:	7159                	addi	sp,sp,-112
    5020662e:	f406                	sd	ra,40(sp)
    50206630:	f022                	sd	s0,32(sp)
    50206632:	1800                	addi	s0,sp,48
    50206634:	fca43c23          	sd	a0,-40(s0)
    50206638:	e40c                	sd	a1,8(s0)
    5020663a:	e810                	sd	a2,16(s0)
    5020663c:	ec14                	sd	a3,24(s0)
    5020663e:	f018                	sd	a4,32(s0)
    50206640:	f41c                	sd	a5,40(s0)
    50206642:	03043823          	sd	a6,48(s0)
    50206646:	03143c23          	sd	a7,56(s0)
    5020664a:	fe042623          	sw	zero,-20(s0)
    5020664e:	04040793          	addi	a5,s0,64
    50206652:	fcf43823          	sd	a5,-48(s0)
    50206656:	fd043783          	ld	a5,-48(s0)
    5020665a:	fc878793          	addi	a5,a5,-56
    5020665e:	fef43023          	sd	a5,-32(s0)
    50206662:	fe043783          	ld	a5,-32(s0)
    50206666:	85be                	mv	a1,a5
    50206668:	fd843503          	ld	a0,-40(s0)
    5020666c:	f91ff0ef          	jal	ra,502065fc <vprintk>
    50206670:	87aa                	mv	a5,a0
    50206672:	fef42623          	sw	a5,-20(s0)
    50206676:	fec42783          	lw	a5,-20(s0)
    5020667a:	853e                	mv	a0,a5
    5020667c:	70a2                	ld	ra,40(sp)
    5020667e:	7402                	ld	s0,32(sp)
    50206680:	6165                	addi	sp,sp,112
    50206682:	8082                	ret

0000000050206684 <printv>:
    50206684:	7159                	addi	sp,sp,-112
    50206686:	f406                	sd	ra,40(sp)
    50206688:	f022                	sd	s0,32(sp)
    5020668a:	1800                	addi	s0,sp,48
    5020668c:	fca43c23          	sd	a0,-40(s0)
    50206690:	e40c                	sd	a1,8(s0)
    50206692:	e810                	sd	a2,16(s0)
    50206694:	ec14                	sd	a3,24(s0)
    50206696:	f018                	sd	a4,32(s0)
    50206698:	f41c                	sd	a5,40(s0)
    5020669a:	03043823          	sd	a6,48(s0)
    5020669e:	03143c23          	sd	a7,56(s0)
    502066a2:	fe042623          	sw	zero,-20(s0)
    502066a6:	04040793          	addi	a5,s0,64
    502066aa:	fcf43823          	sd	a5,-48(s0)
    502066ae:	fd043783          	ld	a5,-48(s0)
    502066b2:	fc878793          	addi	a5,a5,-56
    502066b6:	fef43023          	sd	a5,-32(s0)
    502066ba:	fe043783          	ld	a5,-32(s0)
    502066be:	fffff617          	auipc	a2,0xfffff
    502066c2:	7ae60613          	addi	a2,a2,1966 # 50205e6c <bios_putstr>
    502066c6:	85be                	mv	a1,a5
    502066c8:	fd843503          	ld	a0,-40(s0)
    502066cc:	eadff0ef          	jal	ra,50206578 <_vprint>
    502066d0:	87aa                	mv	a5,a0
    502066d2:	fef42623          	sw	a5,-20(s0)
    502066d6:	fec42783          	lw	a5,-20(s0)
    502066da:	853e                	mv	a0,a5
    502066dc:	70a2                	ld	ra,40(sp)
    502066de:	7402                	ld	s0,32(sp)
    502066e0:	6165                	addi	sp,sp,112
    502066e2:	8082                	ret

00000000502066e4 <printl>:
    502066e4:	7159                	addi	sp,sp,-112
    502066e6:	f406                	sd	ra,40(sp)
    502066e8:	f022                	sd	s0,32(sp)
    502066ea:	1800                	addi	s0,sp,48
    502066ec:	fca43c23          	sd	a0,-40(s0)
    502066f0:	e40c                	sd	a1,8(s0)
    502066f2:	e810                	sd	a2,16(s0)
    502066f4:	ec14                	sd	a3,24(s0)
    502066f6:	f018                	sd	a4,32(s0)
    502066f8:	f41c                	sd	a5,40(s0)
    502066fa:	03043823          	sd	a6,48(s0)
    502066fe:	03143c23          	sd	a7,56(s0)
    50206702:	fe042623          	sw	zero,-20(s0)
    50206706:	04040793          	addi	a5,s0,64
    5020670a:	fcf43823          	sd	a5,-48(s0)
    5020670e:	fd043783          	ld	a5,-48(s0)
    50206712:	fc878793          	addi	a5,a5,-56
    50206716:	fef43023          	sd	a5,-32(s0)
    5020671a:	fe043783          	ld	a5,-32(s0)
    5020671e:	fffff617          	auipc	a2,0xfffff
    50206722:	77660613          	addi	a2,a2,1910 # 50205e94 <bios_logging>
    50206726:	85be                	mv	a1,a5
    50206728:	fd843503          	ld	a0,-40(s0)
    5020672c:	e4dff0ef          	jal	ra,50206578 <_vprint>
    50206730:	87aa                	mv	a5,a0
    50206732:	fef42623          	sw	a5,-20(s0)
    50206736:	fec42783          	lw	a5,-20(s0)
    5020673a:	853e                	mv	a0,a5
    5020673c:	70a2                	ld	ra,40(sp)
    5020673e:	7402                	ld	s0,32(sp)
    50206740:	6165                	addi	sp,sp,112
    50206742:	8082                	ret

0000000050206744 <memcpy>:
    50206744:	7179                	addi	sp,sp,-48
    50206746:	f422                	sd	s0,40(sp)
    50206748:	1800                	addi	s0,sp,48
    5020674a:	fea43423          	sd	a0,-24(s0)
    5020674e:	feb43023          	sd	a1,-32(s0)
    50206752:	87b2                	mv	a5,a2
    50206754:	fcf42e23          	sw	a5,-36(s0)
    50206758:	a035                	j	50206784 <memcpy+0x40>
    5020675a:	fe043703          	ld	a4,-32(s0)
    5020675e:	00170793          	addi	a5,a4,1
    50206762:	fef43023          	sd	a5,-32(s0)
    50206766:	fe843783          	ld	a5,-24(s0)
    5020676a:	00178693          	addi	a3,a5,1
    5020676e:	fed43423          	sd	a3,-24(s0)
    50206772:	00074703          	lbu	a4,0(a4)
    50206776:	00e78023          	sb	a4,0(a5)
    5020677a:	fdc42783          	lw	a5,-36(s0)
    5020677e:	37fd                	addiw	a5,a5,-1
    50206780:	fcf42e23          	sw	a5,-36(s0)
    50206784:	fdc42783          	lw	a5,-36(s0)
    50206788:	2781                	sext.w	a5,a5
    5020678a:	fbe1                	bnez	a5,5020675a <memcpy+0x16>
    5020678c:	0001                	nop
    5020678e:	0001                	nop
    50206790:	7422                	ld	s0,40(sp)
    50206792:	6145                	addi	sp,sp,48
    50206794:	8082                	ret

0000000050206796 <memset>:
    50206796:	7179                	addi	sp,sp,-48
    50206798:	f422                	sd	s0,40(sp)
    5020679a:	1800                	addi	s0,sp,48
    5020679c:	fca43c23          	sd	a0,-40(s0)
    502067a0:	87ae                	mv	a5,a1
    502067a2:	8732                	mv	a4,a2
    502067a4:	fcf40ba3          	sb	a5,-41(s0)
    502067a8:	87ba                	mv	a5,a4
    502067aa:	fcf42823          	sw	a5,-48(s0)
    502067ae:	fd843783          	ld	a5,-40(s0)
    502067b2:	fef43423          	sd	a5,-24(s0)
    502067b6:	a005                	j	502067d6 <memset+0x40>
    502067b8:	fe843783          	ld	a5,-24(s0)
    502067bc:	00178713          	addi	a4,a5,1
    502067c0:	fee43423          	sd	a4,-24(s0)
    502067c4:	fd744703          	lbu	a4,-41(s0)
    502067c8:	00e78023          	sb	a4,0(a5)
    502067cc:	fd042783          	lw	a5,-48(s0)
    502067d0:	37fd                	addiw	a5,a5,-1
    502067d2:	fcf42823          	sw	a5,-48(s0)
    502067d6:	fd042783          	lw	a5,-48(s0)
    502067da:	2781                	sext.w	a5,a5
    502067dc:	fff1                	bnez	a5,502067b8 <memset+0x22>
    502067de:	0001                	nop
    502067e0:	0001                	nop
    502067e2:	7422                	ld	s0,40(sp)
    502067e4:	6145                	addi	sp,sp,48
    502067e6:	8082                	ret

00000000502067e8 <bzero>:
    502067e8:	1101                	addi	sp,sp,-32
    502067ea:	ec06                	sd	ra,24(sp)
    502067ec:	e822                	sd	s0,16(sp)
    502067ee:	1000                	addi	s0,sp,32
    502067f0:	fea43423          	sd	a0,-24(s0)
    502067f4:	87ae                	mv	a5,a1
    502067f6:	fef42223          	sw	a5,-28(s0)
    502067fa:	fe442783          	lw	a5,-28(s0)
    502067fe:	863e                	mv	a2,a5
    50206800:	4581                	li	a1,0
    50206802:	fe843503          	ld	a0,-24(s0)
    50206806:	f91ff0ef          	jal	ra,50206796 <memset>
    5020680a:	0001                	nop
    5020680c:	60e2                	ld	ra,24(sp)
    5020680e:	6442                	ld	s0,16(sp)
    50206810:	6105                	addi	sp,sp,32
    50206812:	8082                	ret

0000000050206814 <strlen>:
    50206814:	7179                	addi	sp,sp,-48
    50206816:	f422                	sd	s0,40(sp)
    50206818:	1800                	addi	s0,sp,48
    5020681a:	fca43c23          	sd	a0,-40(s0)
    5020681e:	fe042623          	sw	zero,-20(s0)
    50206822:	a031                	j	5020682e <strlen+0x1a>
    50206824:	fec42783          	lw	a5,-20(s0)
    50206828:	2785                	addiw	a5,a5,1
    5020682a:	fef42623          	sw	a5,-20(s0)
    5020682e:	fec42783          	lw	a5,-20(s0)
    50206832:	fd843703          	ld	a4,-40(s0)
    50206836:	97ba                	add	a5,a5,a4
    50206838:	0007c783          	lbu	a5,0(a5)
    5020683c:	f7e5                	bnez	a5,50206824 <strlen+0x10>
    5020683e:	fec42783          	lw	a5,-20(s0)
    50206842:	853e                	mv	a0,a5
    50206844:	7422                	ld	s0,40(sp)
    50206846:	6145                	addi	sp,sp,48
    50206848:	8082                	ret

000000005020684a <strcmp>:
    5020684a:	1101                	addi	sp,sp,-32
    5020684c:	ec22                	sd	s0,24(sp)
    5020684e:	1000                	addi	s0,sp,32
    50206850:	fea43423          	sd	a0,-24(s0)
    50206854:	feb43023          	sd	a1,-32(s0)
    50206858:	a0a1                	j	502068a0 <strcmp+0x56>
    5020685a:	fe843783          	ld	a5,-24(s0)
    5020685e:	0007c703          	lbu	a4,0(a5)
    50206862:	fe043783          	ld	a5,-32(s0)
    50206866:	0007c783          	lbu	a5,0(a5)
    5020686a:	02f70163          	beq	a4,a5,5020688c <strcmp+0x42>
    5020686e:	fe843783          	ld	a5,-24(s0)
    50206872:	0007c783          	lbu	a5,0(a5)
    50206876:	0007871b          	sext.w	a4,a5
    5020687a:	fe043783          	ld	a5,-32(s0)
    5020687e:	0007c783          	lbu	a5,0(a5)
    50206882:	2781                	sext.w	a5,a5
    50206884:	40f707bb          	subw	a5,a4,a5
    50206888:	2781                	sext.w	a5,a5
    5020688a:	a099                	j	502068d0 <strcmp+0x86>
    5020688c:	fe843783          	ld	a5,-24(s0)
    50206890:	0785                	addi	a5,a5,1
    50206892:	fef43423          	sd	a5,-24(s0)
    50206896:	fe043783          	ld	a5,-32(s0)
    5020689a:	0785                	addi	a5,a5,1
    5020689c:	fef43023          	sd	a5,-32(s0)
    502068a0:	fe843783          	ld	a5,-24(s0)
    502068a4:	0007c783          	lbu	a5,0(a5)
    502068a8:	c791                	beqz	a5,502068b4 <strcmp+0x6a>
    502068aa:	fe043783          	ld	a5,-32(s0)
    502068ae:	0007c783          	lbu	a5,0(a5)
    502068b2:	f7c5                	bnez	a5,5020685a <strcmp+0x10>
    502068b4:	fe843783          	ld	a5,-24(s0)
    502068b8:	0007c783          	lbu	a5,0(a5)
    502068bc:	0007871b          	sext.w	a4,a5
    502068c0:	fe043783          	ld	a5,-32(s0)
    502068c4:	0007c783          	lbu	a5,0(a5)
    502068c8:	2781                	sext.w	a5,a5
    502068ca:	40f707bb          	subw	a5,a4,a5
    502068ce:	2781                	sext.w	a5,a5
    502068d0:	853e                	mv	a0,a5
    502068d2:	6462                	ld	s0,24(sp)
    502068d4:	6105                	addi	sp,sp,32
    502068d6:	8082                	ret

00000000502068d8 <strncmp>:
    502068d8:	7139                	addi	sp,sp,-64
    502068da:	fc22                	sd	s0,56(sp)
    502068dc:	0080                	addi	s0,sp,64
    502068de:	fca43c23          	sd	a0,-40(s0)
    502068e2:	fcb43823          	sd	a1,-48(s0)
    502068e6:	87b2                	mv	a5,a2
    502068e8:	fcf42623          	sw	a5,-52(s0)
    502068ec:	fe042623          	sw	zero,-20(s0)
    502068f0:	a8a1                	j	50206948 <strncmp+0x70>
    502068f2:	fec42783          	lw	a5,-20(s0)
    502068f6:	fd843703          	ld	a4,-40(s0)
    502068fa:	97ba                	add	a5,a5,a4
    502068fc:	0007c683          	lbu	a3,0(a5)
    50206900:	fec42783          	lw	a5,-20(s0)
    50206904:	fd043703          	ld	a4,-48(s0)
    50206908:	97ba                	add	a5,a5,a4
    5020690a:	0007c783          	lbu	a5,0(a5)
    5020690e:	8736                	mv	a4,a3
    50206910:	02f70763          	beq	a4,a5,5020693e <strncmp+0x66>
    50206914:	fec42783          	lw	a5,-20(s0)
    50206918:	fd843703          	ld	a4,-40(s0)
    5020691c:	97ba                	add	a5,a5,a4
    5020691e:	0007c783          	lbu	a5,0(a5)
    50206922:	0007871b          	sext.w	a4,a5
    50206926:	fec42783          	lw	a5,-20(s0)
    5020692a:	fd043683          	ld	a3,-48(s0)
    5020692e:	97b6                	add	a5,a5,a3
    50206930:	0007c783          	lbu	a5,0(a5)
    50206934:	2781                	sext.w	a5,a5
    50206936:	40f707bb          	subw	a5,a4,a5
    5020693a:	2781                	sext.w	a5,a5
    5020693c:	a839                	j	5020695a <strncmp+0x82>
    5020693e:	fec42783          	lw	a5,-20(s0)
    50206942:	2785                	addiw	a5,a5,1
    50206944:	fef42623          	sw	a5,-20(s0)
    50206948:	fec42703          	lw	a4,-20(s0)
    5020694c:	fcc42783          	lw	a5,-52(s0)
    50206950:	2701                	sext.w	a4,a4
    50206952:	2781                	sext.w	a5,a5
    50206954:	f8f74fe3          	blt	a4,a5,502068f2 <strncmp+0x1a>
    50206958:	4781                	li	a5,0
    5020695a:	853e                	mv	a0,a5
    5020695c:	7462                	ld	s0,56(sp)
    5020695e:	6121                	addi	sp,sp,64
    50206960:	8082                	ret

0000000050206962 <strcpy>:
    50206962:	7179                	addi	sp,sp,-48
    50206964:	f422                	sd	s0,40(sp)
    50206966:	1800                	addi	s0,sp,48
    50206968:	fca43c23          	sd	a0,-40(s0)
    5020696c:	fcb43823          	sd	a1,-48(s0)
    50206970:	fd843783          	ld	a5,-40(s0)
    50206974:	fef43423          	sd	a5,-24(s0)
    50206978:	a00d                	j	5020699a <strcpy+0x38>
    5020697a:	fd043703          	ld	a4,-48(s0)
    5020697e:	00170793          	addi	a5,a4,1
    50206982:	fcf43823          	sd	a5,-48(s0)
    50206986:	fd843783          	ld	a5,-40(s0)
    5020698a:	00178693          	addi	a3,a5,1
    5020698e:	fcd43c23          	sd	a3,-40(s0)
    50206992:	00074703          	lbu	a4,0(a4)
    50206996:	00e78023          	sb	a4,0(a5)
    5020699a:	fd043783          	ld	a5,-48(s0)
    5020699e:	0007c783          	lbu	a5,0(a5)
    502069a2:	ffe1                	bnez	a5,5020697a <strcpy+0x18>
    502069a4:	fd843783          	ld	a5,-40(s0)
    502069a8:	00078023          	sb	zero,0(a5)
    502069ac:	fe843783          	ld	a5,-24(s0)
    502069b0:	853e                	mv	a0,a5
    502069b2:	7422                	ld	s0,40(sp)
    502069b4:	6145                	addi	sp,sp,48
    502069b6:	8082                	ret

00000000502069b8 <strncpy>:
    502069b8:	7139                	addi	sp,sp,-64
    502069ba:	fc22                	sd	s0,56(sp)
    502069bc:	0080                	addi	s0,sp,64
    502069be:	fca43c23          	sd	a0,-40(s0)
    502069c2:	fcb43823          	sd	a1,-48(s0)
    502069c6:	87b2                	mv	a5,a2
    502069c8:	fcf42623          	sw	a5,-52(s0)
    502069cc:	fd843783          	ld	a5,-40(s0)
    502069d0:	fef43423          	sd	a5,-24(s0)
    502069d4:	a00d                	j	502069f6 <strncpy+0x3e>
    502069d6:	fd043703          	ld	a4,-48(s0)
    502069da:	00170793          	addi	a5,a4,1
    502069de:	fcf43823          	sd	a5,-48(s0)
    502069e2:	fd843783          	ld	a5,-40(s0)
    502069e6:	00178693          	addi	a3,a5,1
    502069ea:	fcd43c23          	sd	a3,-40(s0)
    502069ee:	00074703          	lbu	a4,0(a4)
    502069f2:	00e78023          	sb	a4,0(a5)
    502069f6:	fd043783          	ld	a5,-48(s0)
    502069fa:	0007c783          	lbu	a5,0(a5)
    502069fe:	c395                	beqz	a5,50206a22 <strncpy+0x6a>
    50206a00:	fcc42783          	lw	a5,-52(s0)
    50206a04:	fff7871b          	addiw	a4,a5,-1
    50206a08:	fce42623          	sw	a4,-52(s0)
    50206a0c:	fcf045e3          	bgtz	a5,502069d6 <strncpy+0x1e>
    50206a10:	a809                	j	50206a22 <strncpy+0x6a>
    50206a12:	fd843783          	ld	a5,-40(s0)
    50206a16:	00178713          	addi	a4,a5,1
    50206a1a:	fce43c23          	sd	a4,-40(s0)
    50206a1e:	00078023          	sb	zero,0(a5)
    50206a22:	fcc42783          	lw	a5,-52(s0)
    50206a26:	fff7871b          	addiw	a4,a5,-1
    50206a2a:	fce42623          	sw	a4,-52(s0)
    50206a2e:	fef042e3          	bgtz	a5,50206a12 <strncpy+0x5a>
    50206a32:	fe843783          	ld	a5,-24(s0)
    50206a36:	853e                	mv	a0,a5
    50206a38:	7462                	ld	s0,56(sp)
    50206a3a:	6121                	addi	sp,sp,64
    50206a3c:	8082                	ret

0000000050206a3e <strcat>:
    50206a3e:	7179                	addi	sp,sp,-48
    50206a40:	f422                	sd	s0,40(sp)
    50206a42:	1800                	addi	s0,sp,48
    50206a44:	fca43c23          	sd	a0,-40(s0)
    50206a48:	fcb43823          	sd	a1,-48(s0)
    50206a4c:	fd843783          	ld	a5,-40(s0)
    50206a50:	fef43423          	sd	a5,-24(s0)
    50206a54:	a031                	j	50206a60 <strcat+0x22>
    50206a56:	fd843783          	ld	a5,-40(s0)
    50206a5a:	0785                	addi	a5,a5,1
    50206a5c:	fcf43c23          	sd	a5,-40(s0)
    50206a60:	fd843783          	ld	a5,-40(s0)
    50206a64:	0007c783          	lbu	a5,0(a5)
    50206a68:	f7fd                	bnez	a5,50206a56 <strcat+0x18>
    50206a6a:	a00d                	j	50206a8c <strcat+0x4e>
    50206a6c:	fd043703          	ld	a4,-48(s0)
    50206a70:	00170793          	addi	a5,a4,1
    50206a74:	fcf43823          	sd	a5,-48(s0)
    50206a78:	fd843783          	ld	a5,-40(s0)
    50206a7c:	00178693          	addi	a3,a5,1
    50206a80:	fcd43c23          	sd	a3,-40(s0)
    50206a84:	00074703          	lbu	a4,0(a4)
    50206a88:	00e78023          	sb	a4,0(a5)
    50206a8c:	fd043783          	ld	a5,-48(s0)
    50206a90:	0007c783          	lbu	a5,0(a5)
    50206a94:	ffe1                	bnez	a5,50206a6c <strcat+0x2e>
    50206a96:	fd843783          	ld	a5,-40(s0)
    50206a9a:	00078023          	sb	zero,0(a5)
    50206a9e:	fe843783          	ld	a5,-24(s0)
    50206aa2:	853e                	mv	a0,a5
    50206aa4:	7422                	ld	s0,40(sp)
    50206aa6:	6145                	addi	sp,sp,48
    50206aa8:	8082                	ret
